	.cpu generic+fp+simd
	.file	"fast_pptp_core.c"
	.text
.Ltext0:
	.cfi_sections	.debug_frame
#APP
	.irp	num,0,1,2,3,4,5,6,7,8,9,10,11,12,13,14,15,16,17,18,19,20,21,22,23,24,25,26,27,28,29,30
	.equ	.L__reg_num_x\num, \num
	.endr
	.equ	.L__reg_num_xzr, 31

	.macro	mrs_s, rt, sreg
	.inst	0xd5200000|(\sreg)|(.L__reg_num_\rt)
	.endm

	.macro	msr_s, sreg, rt
	.inst	0xd5000000|(\sreg)|(.L__reg_num_\rt)
	.endm

#NO_APP
	.align	2
	.global	sync_tx_pptp_gre_seqno
	.type	sync_tx_pptp_gre_seqno, %function
sync_tx_pptp_gre_seqno:
.LFB3833:
	.file 1 "net/rtl/fastpath/fast_pptp_core.c"
	.loc 1 812 0
	.cfi_startproc
	stp	x29, x30, [sp, -80]!
	.cfi_def_cfa_offset 80
	.cfi_offset 29, -80
	.cfi_offset 30, -72
	add	x29, sp, 0
	.cfi_def_cfa_register 29
	stp	x19, x20, [sp, 16]
	.cfi_offset 19, -64
	.cfi_offset 20, -56
	.loc 1 819 0
	adrp	x19, .LANCHOR0
	.loc 1 812 0
	stp	x23, x24, [sp, 48]
	stp	x21, x22, [sp, 32]
	.cfi_offset 23, -32
	.cfi_offset 24, -24
	.cfi_offset 21, -48
	.cfi_offset 22, -40
	.loc 1 812 0
	mov	x23, x0
	.loc 1 813 0
	bl	rtl_get_skb_data
	mov	x20, x0
	.loc 1 819 0
	ldr	w0, [x19, #:lo12:.LANCHOR0]
	add	x24, x19, :lo12:.LANCHOR0
	cbz	w0, .L1
.LBB159:
.LBB160:
	.file 2 "./arch/arm64/include/asm/irqflags.h"
	.loc 2 29 0
#APP
// 29 "./arch/arm64/include/asm/irqflags.h" 1
	mrs	x22, daif		// arch_local_irq_save
msr	daifset, #2
// 0 "" 2
#NO_APP
.LBE160:
.LBE159:
	.loc 1 824 0
	add	x21, x20, 14
	ldrb	w0, [x21, 9]
	cmp	w0, 47
	bne	.L4
	.loc 1 824 0 is_stmt 0 discriminator 1
	mov	x0, x23
	bl	rtl_get_skb_len
	cmp	w0, 34
	bls	.L4
.LBB161:
	.loc 1 833 0 is_stmt 1
	mov	x0, x23
	bl	rtl_get_skb_data
	ldrb	w1, [x20, 14]
	mov	x2, 14
	and	w1, w1, 15
	add	x1, x2, x1, uxtw 2
	add	x2, x0, x1
.LBB162:
.LBB163:
	.loc 1 97 0
	ldrb	w4, [x2, 2]
.LBE163:
.LBE162:
	.loc 1 836 0
	ldrb	w3, [x2, 1]
.LBB165:
.LBB164:
	.loc 1 97 0
	strb	w4, [x29, 74]
	ldrb	w4, [x2, 3]
	strb	w4, [x29, 75]
.LBE164:
.LBE165:
	.loc 1 836 0
	and	w4, w3, 7
	cmp	w4, 1
	bne	.L4
	ldrh	w4, [x29, 74]
	mov	w5, 34827
	rev16	w4, w4
	cmp	w5, w4, uxth
	bne	.L4
	.loc 1 873 0
	ldrb	w0, [x0, x1]
	tbz	x0, 4, .L9
	.loc 1 874 0
	ldrh	w0, [x24, 66]
	add	x24, x24, 8
	ldrh	w1, [x21, 4]
	cmp	w1, w0
	beq	.L10
	.loc 1 875 0
	ldrh	w1, [x2, 6]
	ldrh	w0, [x24, 30]
	cmp	w1, w0
	bne	.L10
	.loc 1 875 0 is_stmt 0 discriminator 1
	ldr	w1, [x24, 44]
	ldr	w0, [x21, 16]
	cmp	w1, w0
	bne	.L4
	ldr	w1, [x2, 8]
	.loc 1 880 0 is_stmt 1
	ldr	w0, [x24, 48]
	rev	w1, w1
.LBB166:
.LBB167:
	.loc 1 97 0
	strb	w1, [x24, 60]
.LBE167:
.LBE166:
	.loc 1 880 0
	add	w3, w0, 1
.LBB170:
.LBB168:
	.loc 1 97 0
	lsr	w4, w1, 8
.LBE168:
.LBE170:
	.loc 1 880 0
	str	w3, [x24, 48]
	rev	w0, w0
.LBB171:
.LBB169:
	.loc 1 97 0
	strb	w4, [x24, 61]
	lsr	w3, w1, 16
	lsr	w1, w1, 24
	strb	w3, [x24, 62]
	strb	w1, [x24, 63]
.LBE169:
.LBE171:
.LBB172:
.LBB173:
	lsr	w3, w0, 16
	lsr	w4, w0, 8
	lsr	w1, w0, 24
	strb	w3, [x2, 10]
.LBE173:
.LBE172:
	.loc 1 880 0
	str	w0, [x29, 76]
.LBB175:
.LBB174:
	.loc 1 97 0
	strb	w0, [x2, 8]
	strb	w4, [x2, 9]
	strb	w1, [x2, 11]
	ldrb	w3, [x2, 1]
	b	.L9
.L22:
.LBE174:
.LBE175:
	.loc 1 887 0
	mov	w1, 0
	b	.L11
.L23:
	mov	w1, 1
.L11:
	.loc 1 888 0
	add	x0, x19, :lo12:.LANCHOR0
	ldrh	w4, [x2, 6]
	add	x0, x0, 8
	ldrh	w3, [x0, 30]
	cmp	w4, w3
	bne	.L4
	.loc 1 888 0 is_stmt 0 discriminator 1
	ldr	w4, [x0, 44]
	ldr	w3, [x21, 16]
	cmp	w4, w3
	bne	.L4
	ldr	w0, [x0, 52]
	rev	w0, w0
	.loc 1 891 0 is_stmt 1
	str	w0, [x29, 76]
.LBB176:
.LBB177:
	.loc 1 97 0
	lsr	w5, w0, 8
	lsr	w4, w0, 16
	lsr	w3, w0, 24
	strb	w0, [x2, 12]
	strb	w5, [x2, 13]
	strb	w4, [x2, 14]
	strb	w3, [x2, 15]
.LBE177:
.LBE176:
	.loc 1 896 0
	cbnz	w1, .L4
.L12:
	.loc 1 897 0
	add	x2, x19, :lo12:.LANCHOR0
	.loc 1 901 0
	mov	x0, x21
	.loc 1 897 0
	ldrh	w1, [x2, 64]
	add	w1, w1, 1
	uxth	w1, w1
	strh	w1, [x2, 64]
	.loc 1 898 0
	strh	wzr, [x21, 10]
	rev16	w1, w1
	.loc 1 897 0
	strh	w1, [x21, 4]
	.loc 1 901 0
	ldrb	w1, [x20, 14]
	and	w1, w1, 15
	bl	ip_fast_csum
	strh	w0, [x21, 10]
.L4:
.LBE161:
.LBB178:
.LBB179:
	.loc 2 81 0
#APP
// 81 "./arch/arm64/include/asm/irqflags.h" 1
	msr	daif, x22		// arch_local_irq_restore
// 0 "" 2
#NO_APP
	b	.L1
.L9:
.LBE179:
.LBE178:
.LBB180:
	.loc 1 887 0
	tbz	x3, 7, .L12
	b	.L22
.L10:
	tbz	x3, 7, .L4
	b	.L23
.L1:
.LBE180:
	.loc 1 908 0
	ldp	x19, x20, [sp, 16]
	ldp	x21, x22, [sp, 32]
	ldp	x23, x24, [sp, 48]
	ldp	x29, x30, [sp], 80
	.cfi_restore 30
	.cfi_restore 29
	.cfi_restore 23
	.cfi_restore 24
	.cfi_restore 21
	.cfi_restore 22
	.cfi_restore 19
	.cfi_restore 20
	.cfi_def_cfa 31, 0
	ret
	.cfi_endproc
.LFE3833:
	.size	sync_tx_pptp_gre_seqno, .-sync_tx_pptp_gre_seqno
	.align	2
	.global	ppfw_read_proc
	.type	ppfw_read_proc, %function
ppfw_read_proc:
.LFB3837:
	.loc 1 1007 0
	.cfi_startproc
	.loc 1 1008 0
	adrp	x2, .LANCHOR0
	adrp	x1, .LC0
	.loc 1 1007 0
	stp	x29, x30, [sp, -16]!
	.cfi_def_cfa_offset 16
	.cfi_offset 29, -16
	.cfi_offset 30, -8
	.loc 1 1008 0
	add	x1, x1, :lo12:.LC0
	.loc 1 1007 0
	add	x29, sp, 0
	.cfi_def_cfa_register 29
	.loc 1 1008 0
	ldr	w2, [x2, #:lo12:.LANCHOR0]
	bl	seq_printf
	.loc 1 1011 0
	mov	w0, 0
	ldp	x29, x30, [sp], 16
	.cfi_restore 30
	.cfi_restore 29
	.cfi_def_cfa 31, 0
	ret
	.cfi_endproc
.LFE3837:
	.size	ppfw_read_proc, .-ppfw_read_proc
	.align	2
	.global	pptpconn_read_proc
	.type	pptpconn_read_proc, %function
pptpconn_read_proc:
.LFB3838:
	.loc 1 1014 0
	.cfi_startproc
	.loc 1 1015 0
	adrp	x2, .LANCHOR0+96
	adrp	x1, .LC0
	.loc 1 1014 0
	stp	x29, x30, [sp, -16]!
	.cfi_def_cfa_offset 16
	.cfi_offset 29, -16
	.cfi_offset 30, -8
	.loc 1 1015 0
	add	x1, x1, :lo12:.LC0
	.loc 1 1014 0
	add	x29, sp, 0
	.cfi_def_cfa_register 29
	.loc 1 1015 0
	ldr	w2, [x2, #:lo12:.LANCHOR0+96]
	bl	seq_printf
	.loc 1 1018 0
	mov	w0, 0
	ldp	x29, x30, [sp], 16
	.cfi_restore 30
	.cfi_restore 29
	.cfi_def_cfa 31, 0
	ret
	.cfi_endproc
.LFE3838:
	.size	pptpconn_read_proc, .-pptpconn_read_proc
	.align	2
	.global	fastpath_pptp_single_open
	.type	fastpath_pptp_single_open, %function
fastpath_pptp_single_open:
.LFB3839:
	.loc 1 1021 0
	.cfi_startproc
	stp	x29, x30, [sp, -16]!
	.cfi_def_cfa_offset 16
	.cfi_offset 29, -16
	.cfi_offset 30, -8
	mov	x0, x1
	.loc 1 1022 0
	adrp	x1, ppfw_read_proc
	.loc 1 1021 0
	add	x29, sp, 0
	.cfi_def_cfa_register 29
	.loc 1 1022 0
	mov	x2, 0
	add	x1, x1, :lo12:ppfw_read_proc
	.loc 1 1021 0
	.loc 1 1022 0
	bl	single_open
	.loc 1 1023 0
	ldp	x29, x30, [sp], 16
	.cfi_restore 30
	.cfi_restore 29
	.cfi_def_cfa 31, 0
	ret
	.cfi_endproc
.LFE3839:
	.size	fastpath_pptp_single_open, .-fastpath_pptp_single_open
	.align	2
	.global	pptp_conn_single_open
	.type	pptp_conn_single_open, %function
pptp_conn_single_open:
.LFB3841:
	.loc 1 1041 0
	.cfi_startproc
	stp	x29, x30, [sp, -16]!
	.cfi_def_cfa_offset 16
	.cfi_offset 29, -16
	.cfi_offset 30, -8
	mov	x0, x1
	.loc 1 1042 0
	adrp	x1, pptpconn_read_proc
	.loc 1 1041 0
	add	x29, sp, 0
	.cfi_def_cfa_register 29
	.loc 1 1042 0
	mov	x2, 0
	add	x1, x1, :lo12:pptpconn_read_proc
	.loc 1 1041 0
	.loc 1 1042 0
	bl	single_open
	.loc 1 1043 0
	ldp	x29, x30, [sp], 16
	.cfi_restore 30
	.cfi_restore 29
	.cfi_def_cfa 31, 0
	ret
	.cfi_endproc
.LFE3841:
	.size	pptp_conn_single_open, .-pptp_conn_single_open
	.align	2
	.global	is_pptp_device
	.type	is_pptp_device, %function
is_pptp_device:
.LFB3824:
	.loc 1 75 0
	.cfi_startproc
	.loc 1 76 0
	adrp	x1, .LANCHOR0+80
	.loc 1 75 0
	stp	x29, x30, [sp, -32]!
	.cfi_def_cfa_offset 32
	.cfi_offset 29, -32
	.cfi_offset 30, -24
	add	x29, sp, 0
	.cfi_def_cfa_register 29
	.loc 1 76 0
	ldr	x1, [x1, #:lo12:.LANCHOR0+80]
	.loc 1 75 0
	str	x19, [sp, 16]
	.cfi_offset 19, -16
	.loc 1 76 0
	cbz	x1, .L30
	mov	x19, x0
	.loc 1 76 0 is_stmt 0 discriminator 1
	mov	x0, x1
	bl	rtl_get_ppp_dev_name
	mov	x1, x19
	bl	strcmp
	cmp	w0, wzr
	cset	w0, eq
	b	.L29
.L30:
	.loc 1 81 0 is_stmt 1
	mov	w0, 0
.L29:
	.loc 1 82 0
	ldr	x19, [sp, 16]
	ldp	x29, x30, [sp], 32
	.cfi_restore 30
	.cfi_restore 29
	.cfi_restore 19
	.cfi_def_cfa 31, 0
	ret
	.cfi_endproc
.LFE3824:
	.size	is_pptp_device, .-is_pptp_device
	.align	2
	.global	set_pptp_device
	.type	set_pptp_device, %function
set_pptp_device:
.LFB3825:
	.loc 1 85 0
	.cfi_startproc
	stp	x29, x30, [sp, -32]!
	.cfi_def_cfa_offset 32
	.cfi_offset 29, -32
	.cfi_offset 30, -24
	.loc 1 86 0
	adrp	x1, .LANCHOR0
	.loc 1 85 0
	add	x29, sp, 0
	.cfi_def_cfa_register 29
	str	x19, [sp, 16]
	.cfi_offset 19, -16
	.loc 1 86 0
	add	x19, x1, :lo12:.LANCHOR0
	ldr	w1, [x1, #:lo12:.LANCHOR0]
	cbz	w1, .L31
	.loc 1 89 0
	bl	rtl_get_dev_by_name
	str	x0, [x19, 80]
.L31:
	.loc 1 91 0
	ldr	x19, [sp, 16]
	ldp	x29, x30, [sp], 32
	.cfi_restore 30
	.cfi_restore 29
	.cfi_restore 19
	.cfi_def_cfa 31, 0
	ret
	.cfi_endproc
.LFE3825:
	.size	set_pptp_device, .-set_pptp_device
	.align	2
	.global	Check_GRE_rx_net_device
	.type	Check_GRE_rx_net_device, %function
Check_GRE_rx_net_device:
.LFB3827:
	.loc 1 101 0
	.cfi_startproc
	stp	x29, x30, [sp, -64]!
	.cfi_def_cfa_offset 64
	.cfi_offset 29, -64
	.cfi_offset 30, -56
	add	x29, sp, 0
	.cfi_def_cfa_register 29
	stp	x19, x20, [sp, 16]
	.cfi_offset 19, -48
	.cfi_offset 20, -40
	.loc 1 107 0
	adrp	x19, .LANCHOR0
	.loc 1 101 0
	str	x23, [sp, 48]
	stp	x21, x22, [sp, 32]
	.cfi_offset 23, -16
	.cfi_offset 21, -32
	.cfi_offset 22, -24
	.loc 1 107 0
	add	x19, x19, :lo12:.LANCHOR0
	.loc 1 101 0
	mov	x22, x0
	.loc 1 104 0
	bl	rtl_ip_hdr
	mov	x20, x0
	.loc 1 105 0
	mov	x0, x22
	.loc 1 107 0
	add	x19, x19, 8
	.loc 1 105 0
	bl	rtl_get_skb_data
	.loc 1 107 0
	ldr	x21, [x19, 16]
	.loc 1 105 0
	mov	x23, x0
	ldrb	w0, [x20]
	and	w20, w0, 15
	.loc 1 107 0
	cbz	x21, .L38
	.loc 1 110 0
	mov	x0, x22
	bl	rtl_get_skb_dev
	cmp	x21, x0
	.loc 1 113 0
	mov	w0, 0
	.loc 1 110 0
	bne	.L37
	.loc 1 105 0 discriminator 1
	ubfiz	x0, x20, 2, 4
	.loc 1 110 0 discriminator 1
	ldrh	w1, [x19, 42]
	add	x0, x23, x0
	ldrh	w0, [x0, 6]
	cmp	w0, w1
	cset	w0, eq
	b	.L37
.L38:
	.loc 1 115 0
	mov	w0, 0
.L37:
	.loc 1 116 0
	ldp	x19, x20, [sp, 16]
	ldp	x21, x22, [sp, 32]
	ldr	x23, [sp, 48]
	ldp	x29, x30, [sp], 64
	.cfi_restore 30
	.cfi_restore 29
	.cfi_restore 23
	.cfi_restore 21
	.cfi_restore 22
	.cfi_restore 19
	.cfi_restore 20
	.cfi_def_cfa 31, 0
	ret
	.cfi_endproc
.LFE3827:
	.size	Check_GRE_rx_net_device, .-Check_GRE_rx_net_device
	.align	2
	.global	fast_pptp_filter
	.type	fast_pptp_filter, %function
fast_pptp_filter:
.LFB3828:
	.loc 1 120 0
	.cfi_startproc
	stp	x29, x30, [sp, -64]!
	.cfi_def_cfa_offset 64
	.cfi_offset 29, -64
	.cfi_offset 30, -56
	add	x29, sp, 0
	.cfi_def_cfa_register 29
	stp	x19, x20, [sp, 16]
	stp	x21, x22, [sp, 32]
	.cfi_offset 19, -48
	.cfi_offset 20, -40
	.cfi_offset 21, -32
	.cfi_offset 22, -24
	mov	x20, x0
	str	x23, [sp, 48]
	.cfi_offset 23, -16
	.loc 1 128 0
	bl	rtl_ip_hdr
	mov	x19, x0
	.loc 1 130 0
	mov	x0, x20
	bl	rtl_get_skb_len
	cmp	w0, 55
	bls	.L40
.LBB181:
	.loc 1 133 0
	ldrb	w1, [x19, 9]
	.loc 1 131 0
	ldrb	w0, [x19]
	.loc 1 133 0
	cmp	w1, 6
	.loc 1 131 0
	and	w0, w0, 15
	.loc 1 133 0
	bne	.L40
	.loc 1 131 0 discriminator 1
	ubfiz	x0, x0, 2, 4
	.loc 1 133 0 discriminator 1
	mov	w1, 47878
	.loc 1 131 0 discriminator 1
	add	x3, x19, x0
	.loc 1 133 0 discriminator 1
	ldrh	w2, [x19, x0]
	cmp	w2, w1
	bne	.L40
	.loc 1 134 0
	ldrb	w0, [x3, 12]
	ubfx	x0, x0, 4, 4
	sub	w0, w0, #5
	lsl	w0, w0, 2
	sxtw	x0, w0
	add	x0, x0, 20
	add	x0, x3, x0
	ldrh	w1, [x0, 2]
	rev16	w1, w1
	uxth	w1, w1
	.loc 1 138 0
	cmp	w1, 1
	bne	.L40
	ldrh	w1, [x0, 8]
	rev16	w2, w1
	uxth	w2, w2
	.loc 1 139 0 discriminator 3
	cmp	w2, 8
	bne	.L42
	.loc 1 140 0 discriminator 1
	add	x2, x0, 12
	.loc 1 139 0 discriminator 1
	ldrb	w3, [x2, 4]
	cmp	w3, 1
	bne	.L42
	.loc 1 147 0
	adrp	x1, .LANCHOR0
	add	x3, x1, :lo12:.LANCHOR0
	add	x3, x3, 8
	ldr	w4, [x3, 48]
	cbz	w4, .L64
	.loc 1 147 0 is_stmt 0 discriminator 1
	ldr	w4, [x3, 32]
	cbz	w4, .L64
	.loc 1 147 0 discriminator 2
	ldr	w4, [x3, 44]
	cbnz	w4, .L62
.L64:
	ldrh	w3, [x0, 12]
	b	.L43
.L62:
	.loc 1 148 0 is_stmt 1
	ldrh	w4, [x3, 30]
	ldrh	w3, [x0, 12]
	cmp	w4, w3
	bne	.L40
	.loc 1 148 0 is_stmt 0 discriminator 1
	add	x0, x1, :lo12:.LANCHOR0
	ldrh	w4, [x2, 2]
	ldrh	w0, [x0, 50]
	cmp	w0, w4
	bne	.L40
.L43:
	.loc 1 154 0 is_stmt 1
	add	x21, x1, :lo12:.LANCHOR0
	.loc 1 163 0
	mov	x0, x20
	.loc 1 154 0
	mov	w23, 1
	.loc 1 155 0
	strh	w3, [x21, 38]
	.loc 1 154 0
	str	w23, [x21, 100]
	.loc 1 156 0
	ldrh	w1, [x2, 2]
	strh	w1, [x21, 50]
	.loc 1 160 0
	ldr	w1, [x19, 16]
	str	w1, [x21, 40]
	.loc 1 161 0
	ldr	w1, [x19, 12]
	str	w1, [x21, 52]
	.loc 1 162 0
	str	w23, [x21, 56]
	.loc 1 163 0
	bl	rtl_get_skb_dev
	str	x0, [x21, 24]
	.loc 1 166 0
	mov	x0, x20
	bl	rtl_get_skb_data
	mov	x1, x0
	.loc 1 167 0
	mov	x0, x20
	.loc 1 166 0
	ldr	w2, [x1, -8]
	str	w2, [x21, 44]
	ldr	w1, [x1, -6]
	str	w1, [x21, 46]
	.loc 1 167 0
	bl	rtl_get_skb_data
	ldr	w1, [x0, -14]
	str	w1, [x21, 32]
	ldr	w0, [x0, -12]
	str	w0, [x21, 34]
	.loc 1 186 0
	str	w23, [x21, 16]
	b	.L40
.L42:
	rev16	w1, w1
	uxth	w1, w1
	.loc 1 193 0
	cmp	w1, 13
	bne	.L40
	.loc 1 199 0
	adrp	x1, .LANCHOR0
	add	x2, x1, :lo12:.LANCHOR0
	add	x2, x2, 8
	ldr	w3, [x2, 48]
	cbz	w3, .L44
	.loc 1 199 0 is_stmt 0 discriminator 1
	ldr	w3, [x2, 32]
	cbz	w3, .L44
	.loc 1 199 0 discriminator 2
	ldr	w3, [x2, 44]
	cbz	w3, .L44
	.loc 1 200 0 is_stmt 1
	ldrh	w2, [x2, 30]
	ldrh	w0, [x0, 12]
	cmp	w2, w0
	bne	.L40
.L44:
	.loc 1 205 0
	add	x1, x1, :lo12:.LANCHOR0
	str	wzr, [x1, 100]
	.loc 1 206 0
	str	wzr, [x1, 16]
.L40:
.LBE181:
	.loc 1 297 0
	ldp	x19, x20, [sp, 16]
	ldp	x21, x22, [sp, 32]
	ldr	x23, [sp, 48]
	ldp	x29, x30, [sp], 64
	.cfi_restore 30
	.cfi_restore 29
	.cfi_restore 23
	.cfi_restore 21
	.cfi_restore 22
	.cfi_restore 19
	.cfi_restore 20
	.cfi_def_cfa 31, 0
	ret
	.cfi_endproc
.LFE3828:
	.size	fast_pptp_filter, .-fast_pptp_filter
	.align	2
	.global	fast_pptp_to_lan
	.type	fast_pptp_to_lan, %function
fast_pptp_to_lan:
.LFB3829:
	.loc 1 474 0
	.cfi_startproc
	stp	x29, x30, [sp, -64]!
	.cfi_def_cfa_offset 64
	.cfi_offset 29, -64
	.cfi_offset 30, -56
	add	x29, sp, 0
	.cfi_def_cfa_register 29
	stp	x21, x22, [sp, 32]
	stp	x19, x20, [sp, 16]
	stp	x23, x24, [sp, 48]
	.cfi_offset 21, -32
	.cfi_offset 22, -24
	.cfi_offset 19, -48
	.cfi_offset 20, -40
	.cfi_offset 23, -16
	.cfi_offset 24, -8
	.loc 1 488 0
	adrp	x21, .LANCHOR0
	.loc 1 474 0
	mov	x22, x0
	.loc 1 479 0
	ldr	x20, [x0]
	.loc 1 488 0
	add	x19, x21, :lo12:.LANCHOR0
	add	x19, x19, 8
	mov	x0, x20
	bl	rtl_get_skb_dev
	ldr	x1, [x19, 16]
	cmp	x1, x0
	beq	.L66
.L68:
	.loc 1 489 0
	mov	w0, 0
	b	.L67
.L66:
	.loc 1 488 0 discriminator 1
	mov	x0, x20
	bl	rtl_ip_hdr
	ldrb	w0, [x0, 9]
	cmp	w0, 47
	bne	.L68
	.loc 1 488 0 is_stmt 0 discriminator 2
	mov	x0, x20
	bl	rtl_get_skb_len
	cmp	w0, 19
	bls	.L68
	.loc 1 491 0 is_stmt 1
	mov	x0, x20
	bl	rtl_ip_hdr
	mov	x23, x0
	.loc 1 492 0
	mov	x0, x20
	bl	rtl_get_skb_data
	.loc 1 493 0
	ldrb	w1, [x23]
	ubfiz	x1, x1, 2, 4
	add	x3, x0, x1
	.loc 1 495 0
	ldrb	w2, [x3, 1]
	and	w2, w2, 7
	cmp	w2, 1
	bne	.L68
	ldrh	w2, [x3, 2]
	mov	w4, 34827
	rev16	w2, w2
	cmp	w4, w2, uxth
	bne	.L68
.LBB182:
	.loc 1 501 0
	ldrh	w4, [x3, 6]
	ldrh	w2, [x19, 42]
	cmp	w4, w2
	bne	.L68
	.loc 1 506 0
	ldrb	w1, [x0, x1]
	.loc 1 498 0
	mov	w0, 8
	.loc 1 506 0
	tbz	x1, 4, .L69
	ldr	w1, [x3, 8]
	.loc 1 508 0
	mov	w0, 12
	rev	w1, w1
	.loc 1 507 0
	str	w1, [x19, 52]
.L69:
	.loc 1 511 0
	ldrsb	w4, [x3, 1]
	.loc 1 512 0
	add	w2, w0, 4
	.loc 1 517 0
	ldrh	w1, [x3, 4]
	.loc 1 512 0
	cmp	w4, wzr
	csel	w0, w2, w0, lt
	.loc 1 517 0
	cbz	w1, .L68
	.loc 1 514 0
	sxtw	x1, w0
	add	x2, x3, x1
	.loc 1 545 0
	ldrb	w1, [x3, x1]
	cbnz	w1, .L71
	.loc 1 547 0
	add	x2, x2, 1
	.loc 1 546 0
	mov	w1, 1
	b	.L72
.L71:
	.loc 1 549 0
	cmp	w1, 255
	.loc 1 516 0
	mov	w1, 0
	.loc 1 549 0
	bne	.L72
	.loc 1 549 0 is_stmt 0 discriminator 1
	ldrb	w1, [x2, 1]
	cmp	w1, 3
	bne	.L68
	.loc 1 552 0 is_stmt 1
	ldrb	w4, [x2, 2]
	.loc 1 551 0
	add	x3, x2, 2
	.loc 1 554 0
	add	x2, x2, 3
	.loc 1 552 0
	cbz	w4, .L72
	.loc 1 551 0
	mov	x2, x3
	.loc 1 550 0
	mov	w1, 2
.L72:
	.loc 1 557 0
	ldrb	w24, [x2]
	cmp	w24, 253
	beq	.L86
	cmp	w24, 33
	bne	.L68
.L86:
	.loc 1 568 0
	ldrb	w19, [x23]
	.loc 1 570 0
	cmp	w24, 33
	.loc 1 558 0
	add	w1, w1, 1
	.loc 1 568 0
	ubfiz	w19, w19, 2, 4
	add	w0, w19, w0
	add	w19, w1, w0
	.loc 1 570 0
	beq	.L74
	.loc 1 571 0
	add	x23, x21, :lo12:.LANCHOR0
	add	x23, x23, 8
	ldr	x0, [x23, 72]
	cbz	x0, .L68
	.loc 1 571 0 is_stmt 0 discriminator 1
	bl	rtl_get_ppp_dev_priv
	cbz	x0, .L68
	.loc 1 574 0 is_stmt 1
	sub	w1, w19, #2
	mov	x0, x20
	bl	skb_pull
	.loc 1 575 0
	mov	x0, x20
	bl	rtl_get_skb_data
	.loc 1 576 0
	strb	wzr, [x0]
	.loc 1 577 0
	strb	w24, [x0, 1]
	.loc 1 578 0
	ldr	x0, [x23, 72]
	bl	rtl_get_ppp_dev_priv
	mov	x19, x0
	.loc 1 580 0
	bl	rtl_ppp_recv_lock
	.loc 1 581 0
	mov	x1, x20
	mov	w2, 1
	mov	x0, x19
	bl	rtl_ppp_receive_nonmp_frame
	mov	x20, x0
	.loc 1 582 0
	mov	x0, x19
	bl	rtl_ppp_recv_unlock
	.loc 1 583 0
	cbz	x20, .L85
	.loc 1 587 0
	str	x20, [x22]
	.loc 1 589 0
	mov	w23, 1
	b	.L75
.L74:
	.loc 1 593 0
	mov	w1, w19
	mov	x0, x20
.LBE182:
	.loc 1 482 0
	mov	w23, 0
.LBB183:
	.loc 1 593 0
	bl	skb_pull
.L75:
	.loc 1 600 0
	mov	x0, x20
	bl	rtl_get_skb_data
	.loc 1 601 0
	ands	w19, w0, 3
	beq	.L77
	.loc 1 602 0
	mov	x0, x20
	bl	rtl_skb_headroom
	cmp	w0, w19
	bcc	.L77
	.loc 1 604 0
	mov	x0, x20
	sxtw	x22, w19
	bl	rtl_get_skb_data
	sub	x22, x0, x22
	mov	x0, x20
	bl	rtl_get_skb_data
	mov	x24, x0
	mov	x0, x20
	bl	rtl_get_skb_len
	uxtw	x2, w0
	mov	x1, x24
	mov	x0, x22
	bl	memmove
	.loc 1 605 0
	mov	w2, 1
	mov	w1, w19
	mov	x0, x20
	bl	rtl_set_skb_data
	.loc 1 606 0
	mov	w2, 1
	mov	w1, w19
	mov	x0, x20
	bl	rtl_set_skb_tail
.L77:
	.loc 1 612 0
	mov	x0, x20
	.loc 1 619 0
	add	x19, x21, :lo12:.LANCHOR0
	add	x19, x19, 8
	.loc 1 612 0
	bl	rtl_skb_reset_network_header
	.loc 1 613 0
	mov	x0, x20
	bl	rtl_skb_reset_transport_header
	.loc 1 619 0
	ldr	x0, [x19, 72]
	cbz	x0, .L68
	.loc 1 621 0
	cbnz	w23, .L80
	.loc 1 622 0
	bl	rtl_get_ppp_dev_priv
	cbz	x0, .L80
	.loc 1 623 0
	ldr	x0, [x19, 72]
	bl	rtl_get_ppp_dev_priv
	mov	x19, x0
	.loc 1 624 0
	mov	x0, x20
	bl	rtl_get_skb_len
	sub	w2, w0, #2
	mov	w1, 0
	mov	x0, x19
	bl	rtl_inc_ppp_stats
.L80:
	.loc 1 632 0
	add	x1, x21, :lo12:.LANCHOR0
	mov	x0, x20
	ldr	x1, [x1, 80]
	bl	rtl_set_skb_dev
	.loc 1 633 0
	mov	w0, 1
	b	.L67
.L85:
	.loc 1 585 0
	mov	w0, -2
.L67:
.LBE183:
	.loc 1 650 0
	ldp	x19, x20, [sp, 16]
	ldp	x21, x22, [sp, 32]
	ldp	x23, x24, [sp, 48]
	ldp	x29, x30, [sp], 64
	.cfi_restore 30
	.cfi_restore 29
	.cfi_restore 23
	.cfi_restore 24
	.cfi_restore 21
	.cfi_restore 22
	.cfi_restore 19
	.cfi_restore 20
	.cfi_def_cfa 31, 0
	ret
	.cfi_endproc
.LFE3829:
	.size	fast_pptp_to_lan, .-fast_pptp_to_lan
	.align	2
	.global	get_fastpptp_lastxmit
	.type	get_fastpptp_lastxmit, %function
get_fastpptp_lastxmit:
.LFB3830:
	.loc 1 653 0
	.cfi_startproc
	.loc 1 654 0
	adrp	x1, .LANCHOR0
	.loc 1 657 0
	mov	x0, 0
	.loc 1 654 0
	add	x2, x1, :lo12:.LANCHOR0
	ldr	w1, [x1, #:lo12:.LANCHOR0]
	cbz	w1, .L107
	.loc 1 654 0 is_stmt 0 discriminator 1
	ldr	w1, [x2, 16]
	cmp	w1, 1
	bne	.L107
	.loc 1 655 0 is_stmt 1
	ldr	x0, [x2, 8]
.L107:
	.loc 1 658 0
	ret
	.cfi_endproc
.LFE3830:
	.size	get_fastpptp_lastxmit, .-get_fastpptp_lastxmit
	.align	2
	.global	fast_pptp_to_wan
	.type	fast_pptp_to_wan, %function
fast_pptp_to_wan:
.LFB3831:
	.loc 1 663 0
	.cfi_startproc
	stp	x29, x30, [sp, -112]!
	.cfi_def_cfa_offset 112
	.cfi_offset 29, -112
	.cfi_offset 30, -104
	add	x29, sp, 0
	.cfi_def_cfa_register 29
	stp	x19, x20, [sp, 16]
	stp	x21, x22, [sp, 32]
	.cfi_offset 19, -96
	.cfi_offset 20, -88
	.cfi_offset 21, -80
	.cfi_offset 22, -72
	mov	x20, x0
	str	x25, [sp, 64]
	stp	x23, x24, [sp, 48]
	.cfi_offset 25, -48
	.cfi_offset 23, -64
	.cfi_offset 24, -56
	.loc 1 672 0
	bl	rtl_ip_hdr
	ldrb	w21, [x0, 12]
	.loc 1 673 0
	mov	x0, x20
	adrp	x22, .LANCHOR0
	bl	rtl_ip_hdr
	ldr	w19, [x0, 12]
	.loc 1 674 0
	mov	x0, x20
	.loc 1 673 0
	and	w19, w19, 65280
	.loc 1 674 0
	bl	rtl_ip_hdr
	.loc 1 675 0
	cmp	w21, 10
	cset	w2, eq
	cmp	w19, 16384
	cset	w1, eq
	tst	w2, w1
	beq	.L112
	.loc 1 674 0
	ldr	w0, [x0, 12]
	adrp	x22, .LANCHOR0
	and	w0, w0, 16711680
	.loc 1 675 0
	cmp	w0, 4194304
	bne	.L112
	.loc 1 675 0 is_stmt 0 discriminator 2
	add	x0, x22, :lo12:.LANCHOR0
	ldr	w0, [x0, 96]
	cmp	w0, 3
	bne	.L112
.L114:
	.loc 1 678 0 is_stmt 1
	mov	w21, 0
	b	.L113
.L112:
	.loc 1 681 0
	add	x19, x22, :lo12:.LANCHOR0
	add	x19, x19, 8
	ldr	x0, [x19, 72]
	cbz	x0, .L114
	.loc 1 681 0 is_stmt 0 discriminator 1
	bl	rtl_get_ppp_dev_name
	cbz	x0, .L114
	.loc 1 681 0 discriminator 2
	ldr	x0, [x19, 72]
	bl	rtl_get_ppp_dev_name
	adrp	x1, .LC1
	add	x1, x1, :lo12:.LC1
	bl	strcmp
	mov	w21, w0
	cbnz	w0, .L114
	.loc 1 684 0 is_stmt 1
	ldr	w0, [x19, 8]
	cbz	w0, .L115
	.loc 1 684 0 is_stmt 0 discriminator 1
	ldr	x0, [x19, 72]
	cbnz	x0, .L116
.L124:
	.loc 1 773 0 is_stmt 1
	adrp	x0, .LC2
	add	x0, x0, :lo12:.LC2
	bl	printk
	b	.L113
.L116:
	.loc 1 684 0 discriminator 2
	bl	rtl_get_ppp_dev_priv
	cbz	x0, .L115
.LBB184:
	.loc 1 687 0
	ldr	x0, [x19, 72]
	bl	rtl_get_ppp_dev_priv
	mov	x23, x0
	.loc 1 690 0
	bl	rtl_ppp_vj_check
	cmp	w0, 1
	beq	.L114
	.loc 1 695 0
	mov	x0, x20
	bl	rtl_ip_hdr
	ldrb	w24, [x0, 1]
	.loc 1 697 0
	mov	x0, x23
	bl	rtl_ppp_xmit_lock
	.loc 1 698 0
	mov	x0, x23
	bl	rtl_get_ppp_xmit_pending
	cbz	x0, .L117
	.loc 1 700 0
	mov	x0, x23
	bl	rtl_ppp_xmit_unlock
	.loc 1 701 0
	b	.L113
.L117:
	.loc 1 703 0
	adrp	x1, .LC3
	mov	w2, 3
	add	x1, x1, :lo12:.LC3
	mov	x0, x20
	bl	rtl_set_skb_cb
	.loc 1 704 0
	ldr	x1, [x19, 72]
	mov	x0, x20
	bl	rtl_ppp_start_xmit
	.loc 1 705 0
	mov	x0, x23
	bl	rtl_get_ppp_xmit_pending
	cbnz	x0, .L118
	.loc 1 707 0
	mov	x0, x23
	.loc 1 708 0
	mov	w21, 1
	.loc 1 707 0
	bl	rtl_ppp_xmit_unlock
	.loc 1 708 0
	b	.L113
.L118:
	.loc 1 711 0
	mov	x0, x23
	bl	rtl_get_ppp_xmit_pending
	mov	x19, x0
	.loc 1 713 0
	mov	x1, 0
	mov	x0, x23
	bl	rtl_set_ppp_xmit_pending
	.loc 1 714 0
	mov	x0, x23
	bl	rtl_ppp_xmit_unlock
	.loc 1 717 0
	mov	x0, x19
	bl	rtl_skb_headroom
	cmp	w0, 49
	bhi	.L119
.L122:
.LBB185:
	.loc 1 718 0
	mov	w1, 50
	mov	x0, x19
	bl	skb_realloc_headroom
	mov	x20, x0
	.loc 1 719 0
	cbnz	x0, .L149
	b	.L150
.L119:
.LBE185:
	.loc 1 717 0 discriminator 1
	mov	x0, x19
	bl	rtl_skb_cloned
	cbnz	w0, .L122
	.loc 1 717 0 is_stmt 0 discriminator 2
	mov	x0, x19
	.loc 1 711 0 is_stmt 1 discriminator 2
	mov	x20, x19
	.loc 1 717 0 discriminator 2
	bl	rtl_skb_shared
	cbz	w0, .L123
	b	.L122
.L150:
.LBB186:
	.loc 1 721 0
	mov	x0, x19
	.loc 1 722 0
	mov	w21, 1
	.loc 1 721 0
	bl	consume_skb
	.loc 1 722 0
	b	.L113
.L149:
	.loc 1 724 0
	mov	x0, x19
	bl	consume_skb
.L123:
.LBE186:
	.loc 1 730 0
	mov	w1, 50
	mov	x0, x20
	.loc 1 731 0
	add	x22, x22, :lo12:.LANCHOR0
	.loc 1 730 0
	bl	skb_push
	mov	x3, x0
	.loc 1 733 0
	mov	w2, 8
	.loc 1 737 0
	mov	w4, 4
	.loc 1 731 0
	ldr	w0, [x22, 44]
	.loc 1 738 0
	mov	w6, 5
	.loc 1 731 0
	str	w0, [x3]
	.loc 1 745 0
	mov	w1, 0
	mov	x0, x20
	.loc 1 741 0
	strb	w24, [x29, 89]
	.loc 1 731 0
	ldr	w5, [x22, 46]
	str	w5, [x3, 2]
	.loc 1 732 0
	ldr	w5, [x22, 32]
	str	w5, [x3, 6]
	ldr	w5, [x22, 34]
	.loc 1 733 0
	strh	w2, [x3, 12]
	.loc 1 737 0
	ldrb	w2, [x29, 88]
	.loc 1 732 0
	str	w5, [x3, 8]
	.loc 1 739 0
	mov	w3, 64
	.loc 1 737 0
	bfi	w2, w4, 4, 4
	.loc 1 739 0
	strh	w3, [x29, 94]
	.loc 1 738 0
	bfi	w2, w6, 0, 4
	.loc 1 742 0
	ldr	w5, [x22, 52]
	.loc 1 743 0
	ldr	w4, [x22, 40]
	.loc 1 738 0
	strb	w2, [x29, 88]
	.loc 1 740 0
	mov	w2, 47
	.loc 1 742 0
	str	w5, [x29, 104]
	.loc 1 743 0
	str	w4, [x29, 100]
	.loc 1 740 0
	strb	w2, [x29, 97]
	.loc 1 744 0
	strb	w3, [x29, 96]
	.loc 1 745 0
	bl	rtl_set_skb_ip_summed
	.loc 1 746 0
	mov	x0, x20
	bl	rtl_get_skb_len
	sub	w0, w0, #14
	.loc 1 749 0
	add	x3, x29, 112
	.loc 1 747 0
	ldrh	w2, [x22, 64]
	rev16	w0, w0
	.loc 1 746 0
	strh	w0, [x29, 90]
	.loc 1 747 0
	add	w2, w2, 1
	.loc 1 748 0
	strh	wzr, [x29, 98]
	.loc 1 749 0
	ldrb	w1, [x3, -24]!
	.loc 1 747 0
	uxth	w2, w2
	strh	w2, [x22, 64]
	.loc 1 749 0
	mov	x0, x3
	rev16	w2, w2
	and	w1, w1, 15
	.loc 1 747 0
	strh	w2, [x29, 92]
	.loc 1 749 0
	bl	ip_fast_csum
	strh	w0, [x29, 98]
	.loc 1 750 0
	ldrh	w1, [x29, 92]
	.loc 1 751 0
	mov	x0, x20
	.loc 1 750 0
	strh	w1, [x22, 66]
	.loc 1 751 0
	bl	rtl_get_skb_data
	add	x1, x29, 88
	ldp	x2, x3, [x1]
	add	x1, x0, 14
	.loc 1 759 0
	mov	x0, x20
	.loc 1 751 0
	stp	x2, x3, [x1]
	ldr	w2, [x29, 104]
	str	w2, [x1, 16]
	.loc 1 759 0
	bl	rtl_get_skb_len
	sub	w24, w0, #50
	.loc 1 761 0
	ldr	w1, [x22, 56]
	.loc 1 763 0
	mov	x0, x20
	ldr	w21, [x22, 60]
	rev16	w24, w24
	.loc 1 761 0
	add	w2, w1, 1
	rev	w23, w1
	.loc 1 760 0
	ldrh	w25, [x22, 38]
	rev	w21, w21
	.loc 1 761 0
	str	w2, [x22, 56]
	.loc 1 763 0
	bl	rtl_get_skb_data
	.loc 1 764 0
	adrp	x2, jiffies
	.loc 1 767 0
	ldr	x1, [x22, 24]
	.loc 1 763 0
	mov	w3, 48
	mov	w4, -127
	strh	w24, [x0, 38]
	.loc 1 764 0
	ldr	x2, [x2, #:lo12:jiffies]
	.loc 1 763 0
	strb	w4, [x0, 35]
	strb	w3, [x0, 34]
	mov	w3, 2952
	strh	w25, [x0, 40]
	strh	w3, [x0, 36]
	str	w23, [x0, 42]
	str	w21, [x0, 46]
	.loc 1 767 0
	mov	x0, x20
	.loc 1 764 0
	str	x2, [x22, 8]
	.loc 1 769 0
	mov	w21, 1
	.loc 1 767 0
	bl	rtl_set_skb_dev
	.loc 1 768 0
	mov	x0, x20
	bl	dev_queue_xmit
	.loc 1 769 0
	b	.L113
.L115:
.LBE184:
	.loc 1 772 0
	add	x0, x22, :lo12:.LANCHOR0
	ldr	x0, [x0, 80]
	cbz	x0, .L124
	.loc 1 774 0
	bl	rtl_get_ppp_dev_priv
	cbnz	x0, .L114
	.loc 1 775 0
	adrp	x0, .LC4
	add	x0, x0, :lo12:.LC4
	bl	printk
.L113:
	.loc 1 779 0
	mov	w0, w21
	ldr	x25, [sp, 64]
	ldp	x19, x20, [sp, 16]
	ldp	x21, x22, [sp, 32]
	ldp	x23, x24, [sp, 48]
	ldp	x29, x30, [sp], 112
	.cfi_restore 30
	.cfi_restore 29
	.cfi_restore 25
	.cfi_restore 23
	.cfi_restore 24
	.cfi_restore 21
	.cfi_restore 22
	.cfi_restore 19
	.cfi_restore 20
	.cfi_def_cfa 31, 0
	ret
	.cfi_endproc
.LFE3831:
	.size	fast_pptp_to_wan, .-fast_pptp_to_wan
	.align	2
	.global	fast_pptp_sync_rx_seq
	.type	fast_pptp_sync_rx_seq, %function
fast_pptp_sync_rx_seq:
.LFB3832:
	.loc 1 784 0
	.cfi_startproc
	stp	x29, x30, [sp, -16]!
	.cfi_def_cfa_offset 16
	.cfi_offset 29, -16
	.cfi_offset 30, -8
	add	x29, sp, 0
	.cfi_def_cfa_register 29
	.loc 1 786 0
	bl	rtl_ip_hdr
	.loc 1 790 0
	add	x1, x0, 20
	ldrb	w2, [x1, 1]
	and	w3, w2, 7
	cmp	w3, 1
	bne	.L151
	ldrh	w3, [x1, 2]
	mov	w4, 34827
	rev16	w3, w3
	cmp	w4, w3, uxth
	bne	.L151
	.loc 1 796 0
	ldrb	w0, [x0, 20]
	tbz	x0, 4, .L155
	.loc 1 798 0
	adrp	x0, .LANCHOR0
	add	x0, x0, :lo12:.LANCHOR0
	add	x0, x0, 8
	ldr	w2, [x0, 64]
	add	w3, w2, 1
	str	w3, [x0, 64]
	rev	w2, w2
	str	w2, [x1, 8]
	.loc 1 800 0
	ldrsb	w2, [x1, 1]
	tbz	w2, #31, .L151
	.loc 1 802 0
	ldr	w0, [x0, 60]
.L156:
	rev	w0, w0
	.loc 1 802 0 is_stmt 0 discriminator 2
	str	w0, [x1, 12]
	b	.L151
.L157:
	.loc 1 802 0
	adrp	x0, .LANCHOR0+68
	ldr	w0, [x0, #:lo12:.LANCHOR0+68]
	b	.L156
.L155:
	.loc 1 800 0 is_stmt 1
	tbnz	x2, 7, .L157
.L151:
	.loc 1 806 0
	ldp	x29, x30, [sp], 16
	.cfi_restore 30
	.cfi_restore 29
	.cfi_def_cfa 31, 0
	ret
	.cfi_endproc
.LFE3832:
	.size	fast_pptp_sync_rx_seq, .-fast_pptp_sync_rx_seq
	.align	2
	.global	pptpconn_write_proc
	.type	pptpconn_write_proc, %function
pptpconn_write_proc:
.LFB3835:
	.loc 1 924 0
	.cfi_startproc
	stp	x29, x30, [sp, -224]!
	.cfi_def_cfa_offset 224
	.cfi_offset 29, -224
	.cfi_offset 30, -216
	.loc 1 930 0
	cmp	x2, 1
	.loc 1 924 0
	mov	x0, x1
	add	x29, sp, 0
	.cfi_def_cfa_register 29
	.loc 1 930 0
	bls	.L161
	cbz	x1, .L161
.LBB187:
.LBB188:
.LBB189:
.LBB190:
.LBB191:
	.file 3 "./arch/arm64/include/asm/thread_info.h"
	.loc 3 83 0
#APP
// 83 "./arch/arm64/include/asm/thread_info.h" 1
	mrs x4, sp_el0
// 0 "" 2
#NO_APP
.LBE191:
.LBE190:
	.file 4 "./arch/arm64/include/asm/uaccess.h"
	.loc 4 291 0
	ldr	x4, [x4, 8]
#APP
// 291 "./arch/arm64/include/asm/uaccess.h" 1
	adds x0, x0, x2; ccmp x0, x4, #2, cc; cset x5, ls
// 0 "" 2
#NO_APP
.LBE189:
	cbz	x5, .L162
	.loc 4 293 0
	add	x0, x29, 24
	bl	__arch_copy_from_user
.LBE188:
.LBE187:
	mov	x3, 0
	add	x2, x29, 24
	.loc 1 930 0
	cbz	x0, .L169
	b	.L161
.L162:
.LBB193:
.LBB192:
	.loc 4 295 0
	mov	w1, 0
	add	x0, x29, 24
	bl	memset
	b	.L161
.L165:
.LBE192:
.LBE193:
.LBB194:
.LBB195:
	.loc 1 916 0
	add	x3, x1, x0, sxtw
.L169:
	.loc 1 915 0
	ldrb	w0, [x2]
	.loc 1 916 0
	lsl	x1, x3, 3
	add	x1, x1, x3, lsl 1
	.loc 1 917 0
	add	x2, x2, 1
	.loc 1 915 0
	sub	w0, w0, #48
	uxtb	w4, w0
	cmp	w4, 9
	bls	.L165
.LBE195:
.LBE194:
	.loc 1 931 0
	adrp	x0, .LANCHOR0+96
	str	w3, [x0, #:lo12:.LANCHOR0+96]
.L161:
	.loc 1 934 0
	mov	w0, -14
	ldp	x29, x30, [sp], 224
	.cfi_restore 30
	.cfi_restore 29
	.cfi_def_cfa 31, 0
	ret
	.cfi_endproc
.LFE3835:
	.size	pptpconn_write_proc, .-pptpconn_write_proc
	.align	2
	.type	pptp_conn_single_write, %function
pptp_conn_single_write:
.LFB3842:
	.loc 1 1047 0
	.cfi_startproc
	stp	x29, x30, [sp, -16]!
	.cfi_def_cfa_offset 16
	.cfi_offset 29, -16
	.cfi_offset 30, -8
	add	x29, sp, 0
	.cfi_def_cfa_register 29
	.loc 1 1048 0
	bl	pptpconn_write_proc
	.loc 1 1049 0
	sxtw	x0, w0
	ldp	x29, x30, [sp], 16
	.cfi_restore 30
	.cfi_restore 29
	.cfi_def_cfa 31, 0
	ret
	.cfi_endproc
.LFE3842:
	.size	pptp_conn_single_write, .-pptp_conn_single_write
	.align	2
	.global	ppfw_write_proc
	.type	ppfw_write_proc, %function
ppfw_write_proc:
.LFB3836:
	.loc 1 938 0
	.cfi_startproc
	stp	x29, x30, [sp, -48]!
	.cfi_def_cfa_offset 48
	.cfi_offset 29, -48
	.cfi_offset 30, -40
	.loc 1 949 0
	cmp	x2, 1
	.loc 1 938 0
	add	x29, sp, 0
	.cfi_def_cfa_register 29
	stp	x19, x20, [sp, 16]
	str	x21, [sp, 32]
	.cfi_offset 19, -32
	.cfi_offset 20, -24
	.cfi_offset 21, -16
	.loc 1 938 0
	mov	x19, x2
	mov	x21, x1
	.loc 1 949 0
	bls	.L190
.LBB196:
.LBB197:
	.file 5 "include/linux/slab.h"
	.loc 5 475 0
	mov	w1, 32
	add	x0, x2, 32
	movk	w1, 0x208, lsl 16
	bl	__kmalloc
	mov	x20, x0
.LBE197:
.LBE196:
	.loc 1 953 0
	cbz	x0, .L190
	.loc 1 956 0
	cbz	x21, .L180
.LBB198:
.LBB199:
.LBB200:
.LBB201:
.LBB202:
	.loc 3 83 0
#APP
// 83 "./arch/arm64/include/asm/thread_info.h" 1
	mrs x2, sp_el0
// 0 "" 2
#NO_APP
.LBE202:
.LBE201:
	.loc 4 291 0
	ldr	x2, [x2, 8]
	mov	x1, x21
#APP
// 291 "./arch/arm64/include/asm/uaccess.h" 1
	adds x1, x1, x19; ccmp x1, x2, #2, cc; cset x3, ls
// 0 "" 2
#NO_APP
.LBE200:
	.loc 4 293 0
	mov	x2, x19
	.loc 4 291 0
	cbz	x3, .L178
	.loc 4 293 0
	mov	x1, x21
	bl	__arch_copy_from_user
.LBE199:
.LBE198:
	.loc 1 956 0
	cbnz	x0, .L180
	mov	x4, x20
	mov	x3, 0
	b	.L179
.L178:
.LBB204:
.LBB203:
	.loc 4 295 0
	mov	w1, 0
	bl	memset
	b	.L180
.L181:
.LBE203:
.LBE204:
.LBB205:
.LBB206:
	.loc 1 916 0
	add	x3, x2, x1, sxtw
.L179:
	.loc 1 915 0
	ldrb	w1, [x4]
	.loc 1 916 0
	lsl	x2, x3, 3
	add	x2, x2, x3, lsl 1
	.loc 1 917 0
	add	x4, x4, 1
	.loc 1 915 0
	sub	w1, w1, #48
	uxtb	w5, w1
	cmp	w5, 9
	bls	.L181
.LBE206:
.LBE205:
	.loc 1 957 0
	adrp	x1, .LANCHOR0
	add	x0, x1, :lo12:.LANCHOR0
	.loc 1 960 0
	add	x0, x0, 8
	.loc 1 957 0
	str	w3, [x1, #:lo12:.LANCHOR0]
	.loc 1 960 0
	str	xzr, [x0, 80]
	stp	xzr, xzr, [x0]
	stp	xzr, xzr, [x0, 16]
	stp	xzr, xzr, [x0, 32]
	stp	xzr, xzr, [x0, 48]
	stp	xzr, xzr, [x0, 64]
	.loc 1 987 0
	cbz	w3, .L182
	.loc 1 989 0
	adrp	x1, sync_tx_pptp_gre_seqno_hook
	adrp	x0, sync_tx_pptp_gre_seqno
	add	x0, x0, :lo12:sync_tx_pptp_gre_seqno
	str	x0, [x1, #:lo12:sync_tx_pptp_gre_seqno_hook]
	b	.L183
.L182:
	.loc 1 993 0
	adrp	x0, sync_tx_pptp_gre_seqno_hook
	str	xzr, [x0, #:lo12:sync_tx_pptp_gre_seqno_hook]
.L183:
	.loc 1 996 0
	mov	x0, x20
	bl	kfree
	.loc 1 997 0
	mov	w0, w19
	b	.L175
.L180:
	.loc 1 1000 0
	mov	x0, x20
	bl	kfree
.L190:
	.loc 1 1001 0
	mov	w0, -14
.L175:
	.loc 1 1002 0
	ldp	x19, x20, [sp, 16]
	ldr	x21, [sp, 32]
	ldp	x29, x30, [sp], 48
	.cfi_restore 30
	.cfi_restore 29
	.cfi_restore 21
	.cfi_restore 19
	.cfi_restore 20
	.cfi_def_cfa 31, 0
	ret
	.cfi_endproc
.LFE3836:
	.size	ppfw_write_proc, .-ppfw_write_proc
	.align	2
	.type	fastpath_pptp_single_write, %function
fastpath_pptp_single_write:
.LFB3840:
	.loc 1 1027 0
	.cfi_startproc
	stp	x29, x30, [sp, -16]!
	.cfi_def_cfa_offset 16
	.cfi_offset 29, -16
	.cfi_offset 30, -8
	add	x29, sp, 0
	.cfi_def_cfa_register 29
	.loc 1 1028 0
	bl	ppfw_write_proc
	.loc 1 1029 0
	sxtw	x0, w0
	ldp	x29, x30, [sp], 16
	.cfi_restore 30
	.cfi_restore 29
	.cfi_def_cfa 31, 0
	ret
	.cfi_endproc
.LFE3840:
	.size	fastpath_pptp_single_write, .-fastpath_pptp_single_write
	.section	.init.text,"ax",%progbits
	.align	2
	.global	fast_pptp_init
	.type	fast_pptp_init, %function
fast_pptp_init:
.LFB3843:
	.loc 1 1099 0
	.cfi_startproc
	stp	x29, x30, [sp, -48]!
	.cfi_def_cfa_offset 48
	.cfi_offset 29, -48
	.cfi_offset 30, -40
	.loc 1 1102 0
	adrp	x0, .LC5
	mov	x4, 0
	.loc 1 1099 0
	add	x29, sp, 0
	.cfi_def_cfa_register 29
	stp	x19, x20, [sp, 16]
	str	x21, [sp, 32]
	.cfi_offset 19, -32
	.cfi_offset 20, -24
	.cfi_offset 21, -16
	.loc 1 1102 0
	adrp	x20, proc_root
	adrp	x21, .LANCHOR1
	add	x20, x20, :lo12:proc_root
	add	x21, x21, :lo12:.LANCHOR1
	mov	x2, x20
	mov	x3, x21
	mov	w1, 0
	add	x0, x0, :lo12:.LC5
	adrp	x19, .LANCHOR0
	add	x19, x19, :lo12:.LANCHOR0
	bl	proc_create_data
	.loc 1 1105 0
	adrp	x5, .LC6
	add	x3, x21, 224
	mov	x2, x20
	.loc 1 1102 0
	str	x0, [x19, 104]
	.loc 1 1105 0
	mov	x4, 0
	mov	w1, 0
	add	x0, x5, :lo12:.LC6
	bl	proc_create_data
	str	x0, [x19, 112]
	.loc 1 1122 0
	add	x1, x19, 8
	.loc 1 1124 0
	mov	w0, 0
	.loc 1 1122 0
	stp	xzr, xzr, [x1]
	stp	xzr, xzr, [x1, 16]
	stp	xzr, xzr, [x1, 32]
	stp	xzr, xzr, [x1, 48]
	stp	xzr, xzr, [x1, 64]
	str	xzr, [x19, 88]
	.loc 1 1124 0
	ldr	x21, [sp, 32]
	ldp	x19, x20, [sp, 16]
	ldp	x29, x30, [sp], 48
	.cfi_restore 30
	.cfi_restore 29
	.cfi_restore 21
	.cfi_restore 19
	.cfi_restore 20
	.cfi_def_cfa 31, 0
	ret
	.cfi_endproc
.LFE3843:
	.size	fast_pptp_init, .-fast_pptp_init
	.section	.exit.text,"ax",%progbits
	.align	2
	.global	fast_pptp_exit
	.type	fast_pptp_exit, %function
fast_pptp_exit:
.LFB3844:
	.loc 1 1131 0
	.cfi_startproc
	stp	x29, x30, [sp, -32]!
	.cfi_def_cfa_offset 32
	.cfi_offset 29, -32
	.cfi_offset 30, -24
	.loc 1 1133 0
	adrp	x0, .LANCHOR0
	.loc 1 1131 0
	add	x29, sp, 0
	.cfi_def_cfa_register 29
	stp	x19, x20, [sp, 16]
	.cfi_offset 19, -16
	.cfi_offset 20, -8
	.loc 1 1133 0
	add	x20, x0, :lo12:.LANCHOR0
	mov	x19, x0
	ldr	x0, [x20, 104]
	cbz	x0, .L194
	.loc 1 1135 0
	adrp	x1, proc_root
	adrp	x0, .LC5
	add	x1, x1, :lo12:proc_root
	add	x0, x0, :lo12:.LC5
	bl	remove_proc_entry
	.loc 1 1139 0
	str	xzr, [x20, 104]
.L194:
	.loc 1 1142 0
	add	x19, x19, :lo12:.LANCHOR0
	ldr	x0, [x19, 112]
	cbz	x0, .L193
	.loc 1 1144 0
	adrp	x1, proc_root
	adrp	x0, .LC6
	add	x1, x1, :lo12:proc_root
	add	x0, x0, :lo12:.LC6
	bl	remove_proc_entry
	.loc 1 1148 0
	str	xzr, [x19, 112]
.L193:
	.loc 1 1151 0
	ldp	x19, x20, [sp, 16]
	ldp	x29, x30, [sp], 32
	.cfi_restore 30
	.cfi_restore 29
	.cfi_restore 19
	.cfi_restore 20
	.cfi_def_cfa 31, 0
	ret
	.cfi_endproc
.LFE3844:
	.size	fast_pptp_exit, .-fast_pptp_exit
	.global	pptp_conn_proc_fops
	.global	fastpath_pptp_proc_fops
	.global	fast_pptp_fw
	.global	pptp_tcp_finished
	.data
	.align	3
.LANCHOR1 = . + 0
	.type	fastpath_pptp_proc_fops, %object
	.size	fastpath_pptp_proc_fops, 224
fastpath_pptp_proc_fops:
	.zero	8
	.xword	seq_lseek
	.xword	seq_read
	.xword	fastpath_pptp_single_write
	.zero	56
	.xword	fastpath_pptp_single_open
	.zero	8
	.xword	single_release
	.zero	112
	.type	pptp_conn_proc_fops, %object
	.size	pptp_conn_proc_fops, 224
pptp_conn_proc_fops:
	.zero	8
	.xword	seq_lseek
	.xword	seq_read
	.xword	pptp_conn_single_write
	.zero	56
	.xword	pptp_conn_single_open
	.zero	8
	.xword	single_release
	.zero	112
	.section	.rodata.str1.8,"aMS",%progbits,1
	.align	3
.LC0:
	.string	"%d\n"
	.zero	4
.LC1:
	.string	"ppp0"
	.zero	3
.LC2:
	.string	"pptpInfo.ppp0_dev == NULL\n"
	.zero	5
.LC3:
	.string	"RTL"
	.zero	4
.LC4:
	.string	"pptpInfo.ppp0_dev->priv == NULL\n"
	.zero	7
.LC5:
	.string	"fast_pptp"
	.zero	6
.LC6:
	.string	"pptp_conn_ck"
	.bss
	.align	3
.LANCHOR0 = . + 0
	.type	fast_pptp_fw, %object
	.size	fast_pptp_fw, 4
fast_pptp_fw:
	.zero	4
	.zero	4
	.type	pptpAccInfo, %object
	.size	pptpAccInfo, 88
pptpAccInfo:
	.zero	88
	.type	pptp_conn_check, %object
	.size	pptp_conn_check, 4
pptp_conn_check:
	.zero	4
	.type	pptp_tcp_finished, %object
	.size	pptp_tcp_finished, 4
pptp_tcp_finished:
	.zero	4
	.type	res1, %object
	.size	res1, 8
res1:
	.zero	8
	.type	res_check_pptp, %object
	.size	res_check_pptp, 8
res_check_pptp:
	.zero	8
	.text
.Letext0:
	.file 6 "include/uapi/asm-generic/int-ll64.h"
	.file 7 "include/asm-generic/int-ll64.h"
	.file 8 "./include/uapi/asm-generic/posix_types.h"
	.file 9 "include/uapi/linux/types.h"
	.file 10 "include/linux/types.h"
	.file 11 "include/asm-generic/atomic-long.h"
	.file 12 "include/linux/seqlock.h"
	.file 13 "include/linux/mm.h"
	.file 14 "include/linux/stddef.h"
	.file 15 "include/uapi/linux/in.h"
	.file 16 "include/uapi/linux/netfilter.h"
	.file 17 "include/uapi/linux/ip.h"
	.file 18 "include/linux/backing-dev-defs.h"
	.file 19 "include/uapi/linux/rtnetlink.h"
	.file 20 "include/net/neighbour.h"
	.file 21 "include/net/ndisc.h"
	.file 22 "include/asm-generic/bitops/builtin-__fls.h"
	.file 23 "include/asm-generic/bitops/fls64.h"
	.file 24 "include/linux/thread_info.h"
	.file 25 "include/linux/kasan.h"
	.file 26 "include/linux/log2.h"
	.file 27 "include/asm-generic/getorder.h"
	.file 28 "include/uapi/linux/swab.h"
	.file 29 "include/net/inet_frag.h"
	.file 30 "include/linux/etherdevice.h"
	.file 31 "./arch/arm64/include/asm/cachetype.h"
	.file 32 "include/linux/printk.h"
	.file 33 "include/linux/kernel.h"
	.file 34 "./arch/arm64/include/asm/hwcap.h"
	.file 35 "./arch/arm64/include/asm/cpufeature.h"
	.file 36 "include/linux/jiffies.h"
	.file 37 "include/linux/cpumask.h"
	.file 38 "./arch/arm64/include/asm/memory.h"
	.file 39 "include/linux/highuid.h"
	.file 40 "include/linux/seq_file.h"
	.file 41 "include/linux/sched.h"
	.file 42 "include/asm-generic/percpu.h"
	.file 43 "include/linux/mmzone.h"
	.file 44 "include/linux/workqueue.h"
	.file 45 "./arch/arm64/include/asm/topology.h"
	.file 46 "include/linux/percpu_counter.h"
	.file 47 "include/linux/hrtimer.h"
	.file 48 "include/linux/dcache.h"
	.file 49 "include/linux/quota.h"
	.file 50 "include/linux/fs.h"
	.file 51 "./arch/arm64/include/asm/irq.h"
	.file 52 "./arch/arm64/include/asm/hardirq.h"
	.file 53 "include/linux/interrupt.h"
	.file 54 "include/linux/kernel_stat.h"
	.file 55 "include/linux/debug_locks.h"
	.file 56 "include/asm-generic/pgtable.h"
	.file 57 "include/linux/vmstat.h"
	.file 58 "./arch/arm64/include/../../arm/include/asm/xen/hypervisor.h"
	.file 59 "./arch/arm64/include/asm/dma-mapping.h"
	.file 60 "include/net/flow_dissector.h"
	.file 61 "include/net/net_namespace.h"
	.file 62 "include/linux/of.h"
	.file 63 "include/linux/netdevice.h"
	.file 64 "include/net/sch_generic.h"
	.file 65 "include/net/sock.h"
	.file 66 "include/net/inet_connection_sock.h"
	.file 67 "include/net/ip_fib.h"
	.file 68 "include/net/route.h"
	.file 69 "include/net/arp.h"
	.file 70 "include/linux/netfilter.h"
	.file 71 "include/linux/netfilter/x_tables.h"
	.file 72 "include/net/rtl/fastpath/fastpath_core.h"
	.section	.note.GNU-stack,"",%progbits
