	.cpu generic+fp+simd
	.file	"filter.c"
	.text
.Ltext0:
	.cfi_sections	.debug_frame
#APP
	.irp	num,0,1,2,3,4,5,6,7,8,9,10,11,12,13,14,15,16,17,18,19,20,21,22,23,24,25,26,27,28,29,30
	.equ	.L__reg_num_x\num, \num
	.endr
	.equ	.L__reg_num_xzr, 31

	.macro	mrs_s, rt, sreg
	.inst	0xd5200000|(\sreg)|(.L__reg_num_\rt)
	.endm

	.macro	msr_s, sreg, rt
	.inst	0xd5000000|(\sreg)|(.L__reg_num_\rt)
	.endm

#NO_APP
	.align	2
	.type	rtl_ip_range_filter_fastpath, %function
rtl_ip_range_filter_fastpath:
.LFB4062:
	.file 1 "net/rtl/fastpath/filter_v2.c"
	.loc 1 505 0
	.cfi_startproc
	stp	x29, x30, [sp, -32]!
	.cfi_def_cfa_offset 32
	.cfi_offset 29, -32
	.cfi_offset 30, -24
	add	x29, sp, 0
	.cfi_def_cfa_register 29
	str	x19, [sp, 16]
	.cfi_offset 19, -16
	.loc 1 505 0
	mov	x19, x1
	.loc 1 509 0
	bl	rtl_ip_hdr
	.loc 1 515 0
	ldr	w1, [x0, 12]
	.loc 1 519 0
	mov	w0, 0
	.loc 1 515 0
	ldr	w2, [x19]
	cmp	w2, w1
	bhi	.L2
	.loc 1 515 0 is_stmt 0 discriminator 1
	ldr	w0, [x19, 4]
	cmp	w1, w0
	cset	w0, ls
.L2:
	.loc 1 520 0 is_stmt 1
	ldr	x19, [sp, 16]
	ldp	x29, x30, [sp], 32
	.cfi_restore 30
	.cfi_restore 29
	.cfi_restore 19
	.cfi_def_cfa 31, 0
	ret
	.cfi_endproc
.LFE4062:
	.size	rtl_ip_range_filter_fastpath, .-rtl_ip_range_filter_fastpath
	.align	2
	.global	rtl_mac_filter_fastpath
	.type	rtl_mac_filter_fastpath, %function
rtl_mac_filter_fastpath:
.LFB4061:
	.loc 1 485 0
	.cfi_startproc
	stp	x29, x30, [sp, -48]!
	.cfi_def_cfa_offset 48
	.cfi_offset 29, -48
	.cfi_offset 30, -40
	add	x29, sp, 0
	.cfi_def_cfa_register 29
	stp	x21, x22, [sp, 32]
	stp	x19, x20, [sp, 16]
	.cfi_offset 21, -16
	.cfi_offset 22, -8
	.cfi_offset 19, -32
	.cfi_offset 20, -24
	.loc 1 485 0
	mov	x22, x0
	mov	x21, x1
	mov	x19, 6
.L7:
	add	x1, x21, x19
	.loc 1 492 0
	mov	x0, x22
	ldrb	w20, [x1, -6]
	bl	rtl_skb_mac_header
	ldrb	w0, [x0, x19]
	add	x19, x19, 1
	cmp	w0, w20
	bne	.L8
	.loc 1 489 0 discriminator 2
	cmp	x19, 12
	bne	.L7
	.loc 1 497 0
	mov	w0, 1
	b	.L6
.L8:
	.loc 1 499 0
	mov	w0, 0
.L6:
	.loc 1 500 0
	ldp	x19, x20, [sp, 16]
	ldp	x21, x22, [sp, 32]
	ldp	x29, x30, [sp], 48
	.cfi_restore 30
	.cfi_restore 29
	.cfi_restore 21
	.cfi_restore 22
	.cfi_restore 19
	.cfi_restore 20
	.cfi_def_cfa 31, 0
	ret
	.cfi_endproc
.LFE4061:
	.size	rtl_mac_filter_fastpath, .-rtl_mac_filter_fastpath
	.align	2
	.type	rtl_schedule_filter_fastpath, %function
rtl_schedule_filter_fastpath:
.LFB4063:
	.loc 1 525 0
	.cfi_startproc
	stp	x29, x30, [sp, -48]!
	.cfi_def_cfa_offset 48
	.cfi_offset 29, -48
	.cfi_offset 30, -40
	add	x29, sp, 0
	.cfi_def_cfa_register 29
	.loc 1 535 0
	add	x0, x29, 32
	.loc 1 525 0
	str	x19, [sp, 16]
	.cfi_offset 19, -32
	.loc 1 525 0
	mov	x19, x1
	.loc 1 535 0
	bl	do_gettimeofday
	.loc 1 536 0
	mov	x0, 10583
	ldr	x4, [x29, 32]
	.loc 1 538 0
	mov	x3, 31749
	.loc 1 540 0
	mov	x2, -8608480567731124088
	.loc 1 536 0
	movk	x0, 0xce51, lsl 16
	.loc 1 540 0
	add	x2, x2, 1
	.loc 1 538 0
	movk	x3, 0x6af3, lsl 16
	.loc 1 536 0
	movk	x0, 0xc8a0, lsl 32
	.loc 1 538 0
	movk	x3, 0x59e2, lsl 32
	.loc 1 536 0
	movk	x0, 0x1845, lsl 48
	.loc 1 540 0
	smulh	x5, x4, x2
	.loc 1 538 0
	movk	x3, 0x48d1, lsl 48
	asr	x1, x4, 63
	.loc 1 536 0
	smulh	x0, x4, x0
	.loc 1 538 0
	smulh	x3, x4, x3
	mov	x6, 43691
	.loc 1 540 0
	add	x4, x5, x4
	.loc 1 536 0
	mov	x5, 18725
	.loc 1 538 0
	movk	x6, 0xaaaa, lsl 16
	.loc 1 536 0
	asr	x0, x0, 13
	movk	x5, 0x2492, lsl 16
	sub	x0, x0, x1
	.loc 1 538 0
	movk	x6, 0xaaaa, lsl 32
	asr	x3, x3, 10
	.loc 1 536 0
	movk	x5, 0x9249, lsl 32
	.loc 1 538 0
	sub	x3, x3, x1
	.loc 1 536 0
	add	x0, x0, 4
	.loc 1 538 0
	movk	x6, 0x2aaa, lsl 48
	.loc 1 536 0
	movk	x5, 0x4924, lsl 48
	.loc 1 540 0
	asr	x4, x4, 5
	.loc 1 545 0
	mov	w7, 1
	.loc 1 540 0
	sub	x4, x4, x1
	.loc 1 536 0
	smulh	x5, x0, x5
	.loc 1 538 0
	smulh	x6, x3, x6
	.loc 1 540 0
	smulh	x1, x4, x2
	.loc 1 538 0
	asr	x6, x6, 2
	.loc 1 536 0
	asr	x2, x5, 1
	sub	x2, x2, x0, asr 63
	.loc 1 538 0
	sub	x5, x6, x3, asr 63
	lsl	x6, x5, 2
	.loc 1 540 0
	add	x1, x1, x4
	.loc 1 536 0
	lsl	x8, x2, 3
	.loc 1 538 0
	sub	x5, x6, x5
	.loc 1 536 0
	sub	x2, x8, x2
	.loc 1 540 0
	asr	x1, x1, 5
	sub	x1, x1, x4, asr 63
	.loc 1 536 0
	sub	x0, x0, x2
	.loc 1 538 0
	sub	x3, x3, x5, lsl 3
	.loc 1 540 0
	lsl	x6, x1, 4
	.loc 1 545 0
	lsl	w0, w7, w0
	ldr	w2, [x19, 8]
	.loc 1 541 0
	lsl	w5, w3, 4
	.loc 1 540 0
	sub	x1, x6, x1
	orr	w0, w0, 128
	.loc 1 541 0
	sub	w3, w5, w3
	.loc 1 545 0
	ands	w0, w0, w2
	.loc 1 540 0
	sub	x4, x4, x1, lsl 2
	.loc 1 541 0
	add	w3, w4, w3, lsl 2
	.loc 1 545 0
	beq	.L11
	.loc 1 547 0
	ldr	w0, [x19]
	cbnz	w0, .L12
	.loc 1 547 0 is_stmt 0 discriminator 1
	ldr	w1, [x19, 4]
	.loc 1 550 0 is_stmt 1 discriminator 1
	mov	w0, w7
	.loc 1 547 0 discriminator 1
	cbnz	w1, .L13
	b	.L11
.L12:
	.loc 1 547 0 is_stmt 0 discriminator 3
	cmp	w3, w0
	.loc 1 554 0 is_stmt 1 discriminator 3
	mov	w0, 0
	.loc 1 547 0 discriminator 3
	bcc	.L11
	ldr	w1, [x19, 4]
.L13:
	.loc 1 547 0 is_stmt 0 discriminator 4
	cmp	w3, w1
	cset	w0, ls
.L11:
	.loc 1 555 0 is_stmt 1
	ldr	x19, [sp, 16]
	ldp	x29, x30, [sp], 48
	.cfi_restore 30
	.cfi_restore 29
	.cfi_restore 19
	.cfi_def_cfa 31, 0
	ret
	.cfi_endproc
.LFE4063:
	.size	rtl_schedule_filter_fastpath, .-rtl_schedule_filter_fastpath
	.align	2
	.global	filter_table_single_open
	.type	filter_table_single_open, %function
filter_table_single_open:
.LFB4071:
	.loc 1 1168 0
	.cfi_startproc
	stp	x29, x30, [sp, -16]!
	.cfi_def_cfa_offset 16
	.cfi_offset 29, -16
	.cfi_offset 30, -8
	mov	x0, x1
	.loc 1 1169 0
	adrp	x1, filter_table_read_proc
	.loc 1 1168 0
	add	x29, sp, 0
	.cfi_def_cfa_register 29
	.loc 1 1169 0
	mov	x2, 0
	add	x1, x1, :lo12:filter_table_read_proc
	.loc 1 1168 0
	.loc 1 1169 0
	bl	single_open
	.loc 1 1170 0
	ldp	x29, x30, [sp], 16
	.cfi_restore 30
	.cfi_restore 29
	.cfi_def_cfa 31, 0
	ret
	.cfi_endproc
.LFE4071:
	.size	filter_table_single_open, .-filter_table_single_open
	.align	2
	.type	dos_single_open, %function
dos_single_open:
.LFB4122:
	.file 2 "net/rtl/fastpath/filter.c"
	.loc 2 3609 0
	.cfi_startproc
	stp	x29, x30, [sp, -16]!
	.cfi_def_cfa_offset 16
	.cfi_offset 29, -16
	.cfi_offset 30, -8
	mov	x0, x1
	.loc 2 3610 0
	adrp	x1, dos_read_proc
	.loc 2 3609 0
	add	x29, sp, 0
	.cfi_def_cfa_register 29
	.loc 2 3610 0
	mov	x2, 0
	add	x1, x1, :lo12:dos_read_proc
	.loc 2 3609 0
	.loc 2 3610 0
	bl	single_open
	.loc 2 3611 0
	ldp	x29, x30, [sp], 16
	.cfi_restore 30
	.cfi_restore 29
	.cfi_def_cfa 31, 0
	ret
	.cfi_endproc
.LFE4122:
	.size	dos_single_open, .-dos_single_open
	.align	2
	.type	filter_table_read_proc, %function
filter_table_read_proc:
.LFB4070:
	.loc 1 1047 0
	.cfi_startproc
	stp	x29, x30, [sp, -112]!
	.cfi_def_cfa_offset 112
	.cfi_offset 29, -112
	.cfi_offset 30, -104
.LBB639:
.LBB640:
.LBB641:
.LBB642:
	.file 3 "include/linux/slab.h"
	.loc 3 369 0
	mov	w1, 192
.LBE642:
.LBE641:
.LBE640:
.LBE639:
	.loc 1 1047 0
	add	x29, sp, 0
	.cfi_def_cfa_register 29
	stp	x19, x20, [sp, 16]
	.cfi_offset 19, -96
	.cfi_offset 20, -88
.LBB649:
.LBB647:
	.loc 3 470 0
	adrp	x19, kmalloc_caches
.LBB645:
.LBB643:
	.loc 3 369 0
	movk	w1, 0x240, lsl 16
.LBE643:
.LBE645:
	.loc 3 470 0
	add	x19, x19, :lo12:kmalloc_caches
.LBE647:
.LBE649:
	.loc 1 1047 0
	str	x0, [x29, 96]
	stp	x21, x22, [sp, 32]
	stp	x23, x24, [sp, 48]
	stp	x25, x26, [sp, 64]
	stp	x27, x28, [sp, 80]
	.cfi_offset 21, -80
	.cfi_offset 22, -72
	.cfi_offset 23, -64
	.cfi_offset 24, -56
	.cfi_offset 25, -48
	.cfi_offset 26, -40
	.cfi_offset 27, -32
	.cfi_offset 28, -24
.LBB650:
.LBB648:
.LBB646:
.LBB644:
	.loc 3 369 0
	ldr	x0, [x19, 72]
	bl	kmem_cache_alloc
	mov	x20, x0
.LBE644:
.LBE646:
.LBE648:
.LBE650:
	.loc 1 1054 0
	cbz	x0, .L23
	.loc 1 1056 0
	mov	x2, 512
	mov	w1, 0
	bl	memset
.LBB651:
.LBB652:
.LBB653:
.LBB654:
	.loc 3 369 0
	ldr	x0, [x19, 64]
	mov	w1, 192
	movk	w1, 0x240, lsl 16
	bl	kmem_cache_alloc
	mov	x19, x0
.LBE654:
.LBE653:
.LBE652:
.LBE651:
	.loc 1 1059 0
	cbnz	x0, .L24
	.loc 1 1061 0
	mov	x0, x20
	bl	kfree
	.loc 1 1062 0
	b	.L23
.L24:
	.loc 1 1064 0
	mov	w1, 0
	mov	x2, 256
	.loc 1 1096 0
	adrp	x26, .LC3
	.loc 1 1064 0
	bl	memset
	.loc 1 1096 0
	add	x26, x26, :lo12:.LC3
	.loc 1 1066 0
	adrp	x0, .LANCHOR0
	.loc 1 1076 0
	adrp	x1, .LC0
	add	x1, x1, :lo12:.LC0
	.loc 1 1066 0
	add	x28, x0, :lo12:.LANCHOR0
	.loc 1 1076 0
	str	x1, [x29, 104]
	.loc 1 1066 0
	ldr	x22, [x0, #:lo12:.LANCHOR0]
	b	.L25
.L38:
	.loc 1 1076 0
	ldr	w3, [x22, 40]
	mov	x0, x20
	ldr	w2, [x22, 32]
	ldr	x1, [x29, 104]
	sub	w3, w3, #1
	bl	sprintf
	.loc 1 1078 0
	ldr	w0, [x22, 32]
	cmp	w0, 3
	beq	.L27
	cmp	w0, 4
	beq	.L28
	cmp	w0, 2
	bne	.L42
	.loc 1 1081 0
	mov	x23, x22
	.loc 1 1084 0
	adrp	x24, .LC1
	.loc 1 1087 0
	adrp	x25, .LC2
	.loc 1 1084 0
	add	x24, x24, :lo12:.LC1
	.loc 1 1087 0
	add	x25, x25, :lo12:.LC2
	.loc 1 1081 0
	ldr	x21, [x23, 16]!
	b	.L30
.L31:
	.loc 1 1084 0 discriminator 3
	ldr	w2, [x21, 36]
	bl	sprintf
	.loc 1 1086 0 discriminator 3
	mov	x1, x19
	mov	x0, x20
	bl	strcat
	.loc 1 1087 0 discriminator 3
	ldrb	w7, [x21, 49]
	mov	x1, x25
	ldrb	w6, [x21, 48]
	mov	x0, x19
	ldrb	w5, [x21, 47]
	ldrb	w4, [x21, 46]
	ldrb	w3, [x21, 45]
	ldrb	w2, [x21, 44]
	bl	sprintf
	.loc 1 1088 0 discriminator 3
	mov	x1, x19
	mov	x0, x20
	bl	strcat
	.loc 1 1081 0 discriminator 3
	ldr	x21, [x21]
.L30:
	.loc 1 1081 0 is_stmt 0 discriminator 1
	cmp	x21, x23
	.loc 1 1084 0 is_stmt 1 discriminator 1
	mov	x1, x24
	mov	x0, x19
	.loc 1 1081 0 discriminator 1
	bne	.L31
	b	.L32
.L27:
	.loc 1 1093 0
	mov	x23, x22
	.loc 1 1102 0
	adrp	x24, .LC4
	add	x24, x24, :lo12:.LC4
	.loc 1 1093 0
	ldr	x21, [x23, 16]!
	b	.L33
.L34:
	.loc 1 1096 0 discriminator 3
	ldr	w2, [x21, 36]
	bl	sprintf
	.loc 1 1097 0 discriminator 3
	mov	x1, x19
	mov	x0, x20
	bl	strcat
	.loc 1 1102 0 discriminator 3
	add	x2, x21, 44
	mov	x1, x24
	mov	x0, x19
	bl	sprintf
	.loc 1 1104 0 discriminator 3
	mov	x1, x19
	mov	x0, x20
	bl	strcat
	.loc 1 1093 0 discriminator 3
	ldr	x21, [x21]
.L33:
	.loc 1 1093 0 is_stmt 0 discriminator 1
	cmp	x21, x23
	.loc 1 1096 0 is_stmt 1 discriminator 1
	mov	x1, x26
	mov	x0, x19
	.loc 1 1093 0 discriminator 1
	bne	.L34
	b	.L32
.L28:
.LBB655:
	.loc 1 1132 0
	mov	x23, x22
	.loc 1 1135 0
	adrp	x24, .LC1
	.loc 1 1141 0
	adrp	x25, .LC5
	.loc 1 1135 0
	add	x24, x24, :lo12:.LC1
	.loc 1 1141 0
	add	x25, x25, :lo12:.LC5
	.loc 1 1144 0
	adrp	x27, .LC6
	.loc 1 1132 0
	ldr	x21, [x23, 16]!
	b	.L36
.L37:
	.loc 1 1135 0 discriminator 3
	ldr	w2, [x21, 36]
	bl	sprintf
	.loc 1 1136 0 discriminator 3
	mov	x1, x19
	mov	x0, x20
	bl	strcat
	.loc 1 1141 0 discriminator 3
	ldr	w2, [x21, 44]
	mov	x1, x25
	mov	x0, x19
	bl	sprintf
	.loc 1 1142 0 discriminator 3
	mov	x1, x19
	mov	x0, x20
	bl	strcat
	.loc 1 1144 0 discriminator 3
	ldr	w2, [x21, 48]
	add	x1, x27, :lo12:.LC6
	mov	x0, x19
	bl	sprintf
	.loc 1 1145 0 discriminator 3
	mov	x1, x19
	mov	x0, x20
	bl	strcat
	.loc 1 1147 0 discriminator 3
	ldr	w2, [x21, 52]
	adrp	x1, .LC7
	add	x1, x1, :lo12:.LC7
	mov	x0, x19
	bl	sprintf
	.loc 1 1148 0 discriminator 3
	mov	x1, x19
	mov	x0, x20
	bl	strcat
	.loc 1 1132 0 discriminator 3
	ldr	x21, [x21]
.L36:
	.loc 1 1132 0 is_stmt 0 discriminator 1
	cmp	x21, x23
	.loc 1 1135 0 is_stmt 1 discriminator 1
	mov	x1, x24
	mov	x0, x19
	.loc 1 1132 0 discriminator 1
	bne	.L37
	b	.L32
.L42:
.LBE655:
	.loc 1 1154 0
	adrp	x2, .LC8
	.loc 1 1155 0
	mov	x1, x19
	.loc 1 1154 0
	add	x2, x2, :lo12:.LC8
	.loc 1 1155 0
	mov	x0, x20
	.loc 1 1154 0
	ldp	x4, x5, [x2]
	stp	x4, x5, [x19]
	ldr	w2, [x2, 15]
	str	w2, [x19, 15]
	.loc 1 1155 0
	bl	strcat
.L32:
	.loc 1 1066 0 discriminator 2
	ldr	x22, [x22]
.L25:
	.loc 1 1066 0 is_stmt 0 discriminator 1
	cmp	x22, x28
	bne	.L38
	.loc 1 1160 0 is_stmt 1
	ldr	w2, [x22, 56]
	adrp	x1, .LC9
	ldr	x0, [x29, 96]
	mov	x3, x20
	add	x1, x1, :lo12:.LC9
	bl	seq_printf
	.loc 1 1162 0
	mov	x0, x20
	bl	kfree
	.loc 1 1163 0
	mov	x0, x19
	bl	kfree
.L23:
	.loc 1 1165 0
	ldp	x19, x20, [sp, 16]
	ldp	x21, x22, [sp, 32]
	ldp	x23, x24, [sp, 48]
	ldp	x25, x26, [sp, 64]
	ldp	x27, x28, [sp, 80]
	mov	w0, 0
	ldp	x29, x30, [sp], 112
	.cfi_restore 30
	.cfi_restore 29
	.cfi_restore 27
	.cfi_restore 28
	.cfi_restore 25
	.cfi_restore 26
	.cfi_restore 23
	.cfi_restore 24
	.cfi_restore 21
	.cfi_restore 22
	.cfi_restore 19
	.cfi_restore 20
	.cfi_def_cfa 31, 0
	ret
	.cfi_endproc
.LFE4070:
	.size	filter_table_read_proc, .-filter_table_read_proc
	.align	2
	.global	GenerateHTTP401
	.type	GenerateHTTP401, %function
GenerateHTTP401:
.LFB4082:
	.loc 2 810 0
	.cfi_startproc
	stp	x29, x30, [sp, -208]!
	.cfi_def_cfa_offset 208
	.cfi_offset 29, -208
	.cfi_offset 30, -200
	.loc 2 848 0
	adrp	x1, .LC10
	.loc 2 810 0
	add	x29, sp, 0
	.cfi_def_cfa_register 29
	stp	x23, x24, [sp, 48]
	.cfi_offset 23, -160
	.cfi_offset 24, -152
	mov	x23, x0
	.loc 2 848 0
	add	x0, x1, :lo12:.LC10
	.loc 2 810 0
	stp	x19, x20, [sp, 16]
	stp	x21, x22, [sp, 32]
	stp	x25, x26, [sp, 64]
	str	x27, [sp, 80]
	.cfi_offset 19, -192
	.cfi_offset 20, -184
	.cfi_offset 21, -176
	.cfi_offset 22, -168
	.cfi_offset 25, -144
	.cfi_offset 26, -136
	.cfi_offset 27, -128
	.loc 2 848 0
	bl	rtl_get_dev_by_name
	mov	x19, x0
	.loc 2 850 0
	mov	x0, x23
	bl	rtl_ip_hdr
	.loc 2 853 0
	add	x0, x0, 12
	mov	x1, x19
	bl	rtl_neigh_lookup
	mov	x19, x0
	.loc 2 854 0
	cbz	x0, .L70
	.loc 2 854 0 is_stmt 0 discriminator 1
	bl	rtl_get_hh_from_neigh
	cbnz	x0, .L71
	b	.L73
.L74:
.LBB656:
.LBB657:
	.file 4 "include/net/neighbour.h"
	.loc 4 412 0 is_stmt 1
	mov	x0, x19
	bl	neigh_destroy
	b	.L70
.L71:
.LBE657:
.LBE656:
	.loc 2 928 0
	adrp	x22, .LANCHOR0
	add	x0, x22, :lo12:.LANCHOR0
	ldr	x0, [x0, 64]
	cbz	x0, .L48
	.loc 2 929 0
	bl	strlen
	mov	w2, w0
	mov	w3, 32
	mov	x0, x23
	mov	w1, w3
	movk	w3, 0x208, lsl 16
	bl	skb_copy_expand
	mov	x21, x0
	b	.L49
.L48:
	.loc 2 931 0
	mov	w3, 32
	mov	w2, 282
	movk	w3, 0x208, lsl 16
	mov	w1, 32
	mov	x0, x23
	bl	skb_copy_expand
	mov	x21, x0
	b	.L49
.L75:
.LBB661:
.LBB662:
.LBB663:
.LBB664:
	.file 5 "./arch/arm64/include/asm/atomic_ll_sc.h"
	.loc 5 91 0
	add	x2, x19, 44
#APP
// 91 "./arch/arm64/include/asm/atomic_ll_sc.h" 1
	// atomic_sub_return
	prfm	pstl1strm, [x2]
1:	ldxr	w0, [x2]
	sub	w0, w0, 1
	stlxr	w1, w0, [x2]
	cbnz	w1, 1b
	dmb ish
// 0 "" 2
#NO_APP
.LBE664:
.LBE663:
	.loc 4 411 0
	cbnz	w0, .L50
	.loc 4 412 0
	mov	x0, x19
	bl	neigh_destroy
.L50:
.LBE662:
.LBE661:
	.loc 2 938 0
	adrp	x0, .LC11
	add	x0, x0, :lo12:.LC11
	bl	printk
	.loc 2 939 0
	b	.L70
.L72:
	.loc 2 941 0
	mov	x0, x21
	bl	rtl_ip_hdr
	mov	x20, x0
	.loc 2 945 0
	mov	x0, x21
	.loc 2 942 0
	ldrb	w1, [x20]
	and	w2, w1, 15
	ubfiz	x24, x2, 2, 4
	add	x24, x20, x24
	.loc 2 945 0
	ldrb	w1, [x24, 12]
	ubfx	x1, x1, 4, 4
	add	w1, w2, w1
	lsl	w1, w1, 2
	bl	skb_trim
	.loc 2 947 0
	add	x0, x22, :lo12:.LANCHOR0
	ldr	x0, [x0, 64]
	cbz	x0, .L51
	.loc 2 948 0
	bl	strlen
	mov	w1, w0
	mov	x0, x21
	bl	skb_put
	b	.L52
.L51:
	.loc 2 950 0
	mov	w1, 282
	mov	x0, x21
	bl	skb_put
.L52:
	.loc 2 952 0
	mov	x0, x19
	bl	rtl_get_hh_from_neigh
	mov	x25, x0
.L54:
.LBB665:
.LBB666:
.LBB667:
.LBB668:
.LBB669:
.LBB670:
.LBB671:
.LBB672:
.LBB673:
	.file 6 "include/linux/compiler.h"
	.loc 6 218 0
	ldr	w26, [x25, 4]
.LBE673:
.LBE672:
.LBE671:
	.file 7 "include/linux/seqlock.h"
	.loc 7 113 0
	tbz	x26, 0, .L53
.LBB674:
.LBB675:
	.file 8 "./arch/arm64/include/asm/processor.h"
	.loc 8 151 0
#APP
// 151 "./arch/arm64/include/asm/processor.h" 1
	yield
// 0 "" 2
#NO_APP
	b	.L54
.L53:
.LBE675:
.LBE674:
.LBE670:
.LBE669:
	.loc 7 148 0
#APP
// 148 "include/linux/seqlock.h" 1
	dmb ishld
// 0 "" 2
#NO_APP
.LBE668:
.LBE667:
.LBE666:
.LBE665:
	.loc 2 957 0
	mov	x0, x21
	bl	rtl_get_skb_data
	mov	x27, x0
	mov	x0, x25
	bl	rtl_get_data_from_hh
	ldp	x0, x1, [x0]
	stp	x0, x1, [x27, -16]
.LBB676:
.LBB677:
.LBB678:
	.loc 7 219 0
#APP
// 219 "include/linux/seqlock.h" 1
	dmb ishld
// 0 "" 2
#NO_APP
.LBE678:
.LBE677:
.LBE676:
	.loc 2 959 0
	ldr	w0, [x25, 4]
	cmp	w0, w26
	bne	.L54
	.loc 2 960 0
	mov	x0, x25
	bl	rtl_get_len_from_hh
	uxth	w1, w0
	mov	x0, x21
	bl	skb_push
.LBB679:
.LBB680:
.LBB681:
.LBB682:
	.loc 5 91 0
	add	x2, x19, 44
#APP
// 91 "./arch/arm64/include/asm/atomic_ll_sc.h" 1
	// atomic_sub_return
	prfm	pstl1strm, [x2]
1:	ldxr	w0, [x2]
	sub	w0, w0, 1
	stlxr	w1, w0, [x2]
	cbnz	w1, 1b
	dmb ish
// 0 "" 2
#NO_APP
.LBE682:
.LBE681:
	.loc 4 411 0
	cbnz	w0, .L56
	.loc 4 412 0
	mov	x0, x19
	bl	neigh_destroy
.L56:
.LBE680:
.LBE679:
	.loc 2 963 0
	mov	x1, 0
	mov	x0, x21
	bl	rtl_set_skb_nfct
	.loc 2 969 0
	ldrb	w1, [x20]
	.loc 2 966 0
	ldr	w0, [x20, 12]
	.loc 2 969 0
	ubfiz	x1, x1, 2, 4
	.loc 2 967 0
	ldr	w2, [x20, 16]
	.loc 2 969 0
	add	x19, x20, x1
	.loc 2 967 0
	str	w2, [x20, 12]
	.loc 2 968 0
	str	w0, [x20, 16]
	.loc 2 975 0
	add	x2, x22, :lo12:.LANCHOR0
	.loc 2 970 0
	ldrb	w0, [x19, 12]
	.loc 2 971 0
	ldrh	w3, [x20, x1]
	.loc 2 970 0
	ubfx	x0, x0, 4, 4
	.loc 2 975 0
	ldr	x25, [x2, 64]
	.loc 2 970 0
	ubfiz	x0, x0, 2, 4
	add	x26, x19, x0
	.loc 2 972 0
	ldrh	w0, [x19, 2]
	strh	w0, [x20, x1]
	.loc 2 973 0
	strh	w3, [x19, 2]
	.loc 2 975 0
	cbz	x25, .L57
	.loc 2 976 0
	mov	x0, x25
	bl	strlen
	add	x2, x0, 1
	mov	x1, x25
	mov	x0, x26
	bl	memcpy
	b	.L58
.L57:
	.loc 2 978 0
	adrp	x1, .LC12
	mov	x2, 282
	add	x1, x1, :lo12:.LC12
	mov	x0, x26
	bl	memcpy
.L58:
	.loc 2 981 0
	ldr	w1, [x19, 8]
	.loc 2 983 0
	mov	x0, x23
	.loc 2 980 0
	ldr	w25, [x19, 4]
	.loc 2 981 0
	str	w1, [x19, 4]
	.loc 2 983 0
	bl	rtl_get_skb_len
	add	w0, w0, w25
	ldrb	w2, [x20]
	.loc 2 984 0
	add	x3, x22, :lo12:.LANCHOR0
	.loc 2 983 0
	ldrb	w1, [x24, 12]
	and	w2, w2, 15
	.loc 2 990 0
	strh	wzr, [x19, 18]
	.loc 2 983 0
	ubfx	x1, x1, 4, 4
	.loc 2 984 0
	ldrh	w3, [x3, 84]
	.loc 2 983 0
	neg	w2, w2, lsl 2
	.loc 2 984 0
	strh	w3, [x19, 14]
	sub	w1, w2, w1, lsl 2
	.loc 2 983 0
	add	w0, w1, w0
	.loc 2 988 0
	mov	w1, 24
	.loc 2 983 0
	str	w0, [x19, 8]
	.loc 2 992 0
	mov	x0, x21
	.loc 2 989 0
	strb	w1, [x19, 13]
	.loc 2 992 0
	bl	rtl_get_skb_len
	ldrb	w23, [x20]
	.loc 2 994 0
	ldrb	w3, [x24, 12]
	.loc 2 837 0
	mov	w1, 20
	.loc 2 992 0
	and	w23, w23, 15
	.loc 2 994 0
	ubfx	x3, x3, 4, 4
	.loc 2 992 0
	neg	w23, w23, lsl 2
	.loc 2 994 0
	lsl	w3, w3, 2
	sub	w23, w23, #14
	.loc 2 992 0
	add	w23, w23, w0
	.loc 2 996 0
	b	.L59
.L64:
	.loc 2 998 0
	ldrb	w0, [x19, w1, uxtw]
	.loc 2 999 0
	cmp	w0, 1
	bhi	.L60
	.loc 2 1001 0
	add	w1, w1, 1
	.loc 2 1002 0
	b	.L59
.L60:
	.loc 2 1007 0
	cmp	w0, 8
	.loc 2 1005 0
	ldrb	w0, [x19, x2]
	.loc 2 1007 0
	bne	.L62
	.loc 2 1010 0
	add	w0, w1, 6
	.loc 2 1009 0
	add	w1, w1, 2
	.loc 2 1010 0
	ldr	w3, [x19, x0]
	.loc 2 1009 0
	ldr	w2, [x19, x1]
	.loc 2 1011 0
	str	w3, [x19, x1]
	.loc 2 1012 0
	str	w2, [x19, x0]
	.loc 2 1013 0
	b	.L63
.L62:
	.loc 2 1015 0
	add	w1, w1, w0
.L59:
	.loc 2 996 0
	cmp	w1, w3
	.loc 2 1005 0
	add	w2, w1, 1
	.loc 2 996 0
	bcc	.L64
.L63:
	.loc 2 1018 0
	strh	wzr, [x19, 16]
	.loc 2 1019 0
	mov	w1, w23
	mov	w2, 0
	mov	x0, x19
	ldr	w24, [x20, 12]
	.loc 2 1021 0
	add	x22, x22, :lo12:.LANCHOR0
	.loc 2 1019 0
	ldr	w25, [x20, 16]
	bl	csum_partial
.LBB683:
.LBB684:
	.file 9 "include/asm-generic/checksum.h"
	.loc 9 77 0
	mov	w3, 6
	mov	w4, w0
	mov	w2, w23
	mov	w1, w25
	mov	w0, w24
	bl	csum_tcpudp_nofold
.LBB685:
.LBB686:
	.loc 9 56 0
	uxth	w1, w0
	add	w1, w1, w0, lsr 16
.LBE686:
.LBE685:
.LBE684:
.LBE683:
	.loc 2 1020 0
	mov	x0, x21
.LBB690:
.LBB689:
.LBB688:
.LBB687:
	.loc 9 57 0
	lsr	w2, w1, 16
	add	w1, w2, w1, uxth
	.loc 9 58 0
	mvn	w1, w1
.LBE687:
.LBE688:
.LBE689:
.LBE690:
	.loc 2 1019 0
	strh	w1, [x19, 16]
	.loc 2 1020 0
	bl	rtl_get_skb_len
	sub	w0, w0, #14
	.loc 2 1023 0
	ldrh	w2, [x22, 72]
	rev16	w0, w0
	.loc 2 1026 0
	ldrb	w1, [x20]
	.loc 2 1021 0
	ldrb	w3, [x22, 86]
	.loc 2 1023 0
	add	w2, w2, 2
	.loc 2 1021 0
	strb	w3, [x20, 8]
	.loc 2 1026 0
	and	w1, w1, 15
	.loc 2 1023 0
	strh	w2, [x20, 4]
	.loc 2 1020 0
	strh	w0, [x20, 2]
	.loc 2 1026 0
	mov	x0, x20
	.loc 2 1022 0
	strh	wzr, [x20, 6]
	.loc 2 1025 0
	strh	wzr, [x20, 10]
	.loc 2 1026 0
	bl	ip_fast_csum
	strh	w0, [x20, 10]
	.loc 2 1027 0
	mov	w1, 1
	.loc 2 1028 0
	mov	x0, x21
	.loc 2 1027 0
	strb	w1, [x22, 87]
	.loc 2 1028 0
	bl	rtl_get_skb_data
	mov	x1, x0
	add	x8, x29, 136
	ldp	x4, x5, [x0, 32]
	ldp	x6, x7, [x1]
	stp	x4, x5, [x8]
	add	x8, x29, 104
	ldr	x5, [x1, 46]
	ldp	x2, x3, [x1, 16]
	.loc 2 1030 0
	ldrh	w4, [x19, 2]
	.loc 2 1039 0
	mov	x0, x21
	.loc 2 1028 0
	stp	x6, x7, [x8]
	add	x6, x29, 120
	.loc 2 1031 0
	ldr	w1, [x19, 8]
	.loc 2 1030 0
	strh	w4, [x22, 92]
	.loc 2 1031 0
	str	w1, [x22, 96]
	.loc 2 1028 0
	stp	x2, x3, [x6]
	str	x5, [x29, 150]
	.loc 2 1039 0
	bl	dev_queue_xmit
	.loc 2 1040 0
	b	.L70
.L73:
.LBB691:
.LBB660:
.LBB658:
.LBB659:
	.loc 5 91 0
	add	x2, x19, 44
#APP
// 91 "./arch/arm64/include/asm/atomic_ll_sc.h" 1
	// atomic_sub_return
	prfm	pstl1strm, [x2]
1:	ldxr	w0, [x2]
	sub	w0, w0, 1
	stlxr	w1, w0, [x2]
	cbnz	w1, 1b
	dmb ish
// 0 "" 2
#NO_APP
.LBE659:
.LBE658:
	.loc 4 411 0
	cbnz	w0, .L70
	b	.L74
.L49:
.LBE660:
.LBE691:
	.loc 2 933 0
	cbnz	x21, .L72
	b	.L75
.L70:
	.loc 2 1041 0
	ldp	x19, x20, [sp, 16]
	ldp	x21, x22, [sp, 32]
	ldp	x23, x24, [sp, 48]
	ldp	x25, x26, [sp, 64]
	ldr	x27, [sp, 80]
	mov	w0, 0
	ldp	x29, x30, [sp], 208
	.cfi_restore 30
	.cfi_restore 29
	.cfi_restore 27
	.cfi_restore 25
	.cfi_restore 26
	.cfi_restore 23
	.cfi_restore 24
	.cfi_restore 21
	.cfi_restore 22
	.cfi_restore 19
	.cfi_restore 20
	.cfi_def_cfa 31, 0
	ret
	.cfi_endproc
.LFE4082:
	.size	GenerateHTTP401, .-GenerateHTTP401
	.align	2
	.type	GenerateTCPENDACK, %function
GenerateTCPENDACK:
.LFB4080:
	.loc 2 522 0
	.cfi_startproc
	stp	x29, x30, [sp, -144]!
	.cfi_def_cfa_offset 144
	.cfi_offset 29, -144
	.cfi_offset 30, -136
	.loc 2 546 0
	adrp	x1, .LC10
	.loc 2 522 0
	add	x29, sp, 0
	.cfi_def_cfa_register 29
	stp	x21, x22, [sp, 32]
	.cfi_offset 21, -112
	.cfi_offset 22, -104
	mov	x22, x0
	.loc 2 546 0
	add	x0, x1, :lo12:.LC10
	.loc 2 522 0
	stp	x19, x20, [sp, 16]
	stp	x23, x24, [sp, 48]
	stp	x25, x26, [sp, 64]
	stp	x27, x28, [sp, 80]
	.cfi_offset 19, -128
	.cfi_offset 20, -120
	.cfi_offset 23, -96
	.cfi_offset 24, -88
	.cfi_offset 25, -80
	.cfi_offset 26, -72
	.cfi_offset 27, -64
	.cfi_offset 28, -56
	.loc 2 546 0
	bl	rtl_get_dev_by_name
	mov	x24, x0
	.loc 2 547 0
	mov	x0, x22
	.loc 2 551 0
	adrp	x21, .LANCHOR0
	.loc 2 547 0
	bl	rtl_ip_hdr
	mov	x20, x0
	.loc 2 551 0
	add	x0, x21, :lo12:.LANCHOR0
	.loc 2 549 0
	ldrb	w19, [x20]
	.loc 2 551 0
	ldrh	w1, [x0, 100]
	.loc 2 549 0
	ubfiz	x19, x19, 2, 4
	add	x23, x20, x19
	.loc 2 551 0
	ldrh	w2, [x20, x19]
	cmp	w2, w1
	bne	.L96
	.loc 2 551 0 is_stmt 0 discriminator 1
	ldr	w1, [x23, 4]
	ldr	w0, [x0, 104]
	cmp	w1, w0
	bne	.L96
	.loc 2 556 0 is_stmt 1
	mov	x1, x24
	add	x0, x20, 12
	bl	rtl_neigh_lookup
	mov	x25, x0
	.loc 2 557 0
	cbz	x0, .L96
	.loc 2 557 0 is_stmt 0 discriminator 1
	bl	rtl_get_hh_from_neigh
	cbnz	x0, .L100
	b	.L101
.L94:
.LBB692:
.LBB693:
	.loc 4 412 0 is_stmt 1
	mov	x0, x25
	bl	neigh_destroy
	b	.L96
.L100:
.LBE693:
.LBE692:
	.loc 2 566 0
	mov	w3, 32
	mov	w2, 0
	movk	w3, 0x208, lsl 16
	mov	w1, 32
	mov	x0, x22
	bl	skb_copy_expand
	mov	x24, x0
	.loc 2 567 0
	cbnz	x0, .L82
.LBB697:
.LBB698:
.LBB699:
.LBB700:
	.loc 5 91 0
	add	x2, x25, 44
#APP
// 91 "./arch/arm64/include/asm/atomic_ll_sc.h" 1
	// atomic_sub_return
	prfm	pstl1strm, [x2]
1:	ldxr	w0, [x2]
	sub	w0, w0, 1
	stlxr	w1, w0, [x2]
	cbnz	w1, 1b
	dmb ish
// 0 "" 2
#NO_APP
.LBE700:
.LBE699:
	.loc 4 411 0
	cbnz	w0, .L83
	.loc 4 412 0
	mov	x0, x25
	bl	neigh_destroy
.L83:
.LBE698:
.LBE697:
	.loc 2 572 0
	adrp	x0, .LC11
	add	x0, x0, :lo12:.LC11
	bl	printk
	.loc 2 573 0
	b	.L96
.L82:
	.loc 2 575 0
	bl	rtl_ip_hdr
	.loc 2 576 0
	ldrb	w1, [x0]
	mov	x0, x24
	ubfiz	w1, w1, 2, 4
	add	w1, w1, 20
	bl	skb_trim
	.loc 2 577 0
	mov	w1, 0
	mov	x0, x24
	bl	skb_put
	.loc 2 578 0
	mov	x0, x25
	bl	rtl_get_hh_from_neigh
	mov	x26, x0
.L85:
.LBB701:
.LBB702:
.LBB703:
.LBB704:
.LBB705:
.LBB706:
.LBB707:
.LBB708:
.LBB709:
	.loc 6 218 0
	ldr	w27, [x26, 4]
.LBE709:
.LBE708:
.LBE707:
	.loc 7 113 0
	tbz	x27, 0, .L84
.LBB710:
.LBB711:
	.loc 8 151 0
#APP
// 151 "./arch/arm64/include/asm/processor.h" 1
	yield
// 0 "" 2
#NO_APP
	b	.L85
.L84:
.LBE711:
.LBE710:
.LBE706:
.LBE705:
	.loc 7 148 0
#APP
// 148 "include/linux/seqlock.h" 1
	dmb ishld
// 0 "" 2
#NO_APP
.LBE704:
.LBE703:
.LBE702:
.LBE701:
	.loc 2 582 0
	mov	x0, x24
	bl	rtl_get_skb_data
	mov	x28, x0
	mov	x0, x26
	bl	rtl_get_data_from_hh
	ldp	x0, x1, [x0]
	stp	x0, x1, [x28, -16]
.LBB712:
.LBB713:
.LBB714:
	.loc 7 219 0
#APP
// 219 "include/linux/seqlock.h" 1
	dmb ishld
// 0 "" 2
#NO_APP
.LBE714:
.LBE713:
.LBE712:
	.loc 2 584 0
	ldr	w0, [x26, 4]
	cmp	w0, w27
	bne	.L85
	.loc 2 585 0
	mov	x0, x26
	bl	rtl_get_len_from_hh
	uxth	w1, w0
	mov	x0, x24
	bl	skb_push
.LBB715:
.LBB716:
.LBB717:
.LBB718:
	.loc 5 91 0
	add	x2, x25, 44
#APP
// 91 "./arch/arm64/include/asm/atomic_ll_sc.h" 1
	// atomic_sub_return
	prfm	pstl1strm, [x2]
1:	ldxr	w0, [x2]
	sub	w0, w0, 1
	stlxr	w1, w0, [x2]
	cbnz	w1, 1b
	dmb ish
// 0 "" 2
#NO_APP
.LBE718:
.LBE717:
	.loc 4 411 0
	cbnz	w0, .L87
	.loc 4 412 0
	mov	x0, x25
	bl	neigh_destroy
.L87:
.LBE716:
.LBE715:
	.loc 2 588 0
	mov	x1, 0
	mov	x0, x24
	bl	rtl_set_skb_nfct
	.loc 2 593 0
	ldrh	w0, [x23, 2]
	.loc 2 604 0
	add	x2, x21, :lo12:.LANCHOR0
	.loc 2 595 0
	ldr	w1, [x23, 4]
	.loc 2 593 0
	strh	w0, [x29, 120]
	.loc 2 605 0
	mov	x0, x24
	.loc 2 598 0
	ldrb	w3, [x29, 132]
	.loc 2 597 0
	add	w1, w1, 1
	.loc 2 594 0
	ldrh	w4, [x20, x19]
	.loc 2 596 0
	ldr	w5, [x23, 8]
	.loc 2 604 0
	ldrh	w2, [x2, 84]
	.loc 2 597 0
	str	w1, [x29, 128]
	.loc 2 598 0
	mov	w1, 5
	bfi	w3, w1, 4, 4
	.loc 2 601 0
	mov	w1, 16
	.loc 2 598 0
	strb	w3, [x29, 132]
	.loc 2 602 0
	strb	w1, [x29, 133]
	.loc 2 596 0
	str	w5, [x29, 124]
	.loc 2 594 0
	strh	w4, [x29, 122]
	.loc 2 603 0
	strh	wzr, [x29, 138]
	.loc 2 604 0
	strh	w2, [x29, 134]
	.loc 2 605 0
	bl	rtl_get_skb_len
	.loc 2 607 0
	ldrb	w3, [x23, 12]
	.loc 2 605 0
	sub	w19, w0, #34
	.loc 2 538 0
	mov	w1, 20
	.loc 2 607 0
	ubfx	x3, x3, 4, 4
	lsl	w3, w3, 2
	.loc 2 609 0
	b	.L88
.L93:
	.loc 2 611 0
	ldrb	w2, [x2, 4072]
	.loc 2 612 0
	cmp	w2, 1
	bhi	.L89
	.loc 2 614 0
	add	w1, w1, 1
	.loc 2 615 0
	b	.L88
.L89:
	.loc 2 620 0
	cmp	w2, 8
	.loc 2 618 0
	ldrb	w0, [x0, 4072]
	.loc 2 620 0
	bne	.L91
	.loc 2 622 0
	add	x0, x29, 120
	.loc 2 623 0
	add	w2, w1, 6
	.loc 2 622 0
	add	w1, w1, 2
	.loc 2 623 0
	ldr	w4, [x0, x2]
	.loc 2 622 0
	ldr	w3, [x0, x1]
	.loc 2 624 0
	str	w4, [x0, x1]
	.loc 2 625 0
	str	w3, [x0, x2]
	.loc 2 626 0
	b	.L92
.L91:
	.loc 2 628 0
	add	w1, w1, w0
.L88:
	.loc 2 611 0
	sub	x0, x29, #3952
	.loc 2 609 0
	cmp	w1, w3
	.loc 2 611 0
	add	x2, x0, x1, uxtw
	.loc 2 618 0
	sub	x4, x29, #3952
	add	w0, w1, 1
	add	x0, x4, x0
	.loc 2 609 0
	bcc	.L93
	add	x0, x29, 120
.L92:
	.loc 2 631 0
	strh	wzr, [x29, 136]
	.loc 2 632 0
	mov	w1, w19
	mov	w2, 0
	.loc 2 642 0
	add	x21, x21, :lo12:.LANCHOR0
	.loc 2 632 0
	ldr	w23, [x20, 12]
	ldr	w25, [x20, 16]
	bl	csum_partial
.LBB719:
.LBB720:
	.loc 9 77 0
	mov	w3, 6
	mov	w4, w0
	mov	w2, w19
	mov	w1, w25
	mov	w0, w23
	bl	csum_tcpudp_nofold
.LBB721:
.LBB722:
	.loc 9 56 0
	uxth	w1, w0
	add	w1, w1, w0, lsr 16
.LBE722:
.LBE721:
.LBE720:
.LBE719:
	.loc 2 633 0
	mov	x0, x24
.LBB726:
.LBB725:
.LBB724:
.LBB723:
	.loc 9 57 0
	lsr	w2, w1, 16
	add	w1, w2, w1, uxth
	.loc 9 58 0
	mvn	w1, w1
.LBE723:
.LBE724:
.LBE725:
.LBE726:
	.loc 2 632 0
	strh	w1, [x29, 136]
	.loc 2 633 0
	bl	rtl_get_skb_data
	add	x3, x0, 34
	add	x1, x29, 120
	.loc 2 635 0
	ldrb	w2, [x29, 96]
	mov	w0, 4
	.loc 2 637 0
	strh	wzr, [x29, 102]
	.loc 2 635 0
	bfi	w2, w0, 4, 4
	.loc 2 643 0
	mov	x0, x22
	.loc 2 633 0
	ldp	x4, x5, [x1]
	stp	x4, x5, [x3]
	.loc 2 642 0
	ldrb	w4, [x21, 86]
	.loc 2 643 0
	mov	w1, 0
	.loc 2 633 0
	ldr	w5, [x29, 136]
	str	w5, [x3, 16]
	.loc 2 636 0
	mov	w3, 5
	bfi	w2, w3, 0, 4
	strb	w2, [x29, 96]
	.loc 2 640 0
	ldr	w3, [x20, 12]
	.loc 2 638 0
	mov	w2, 6
	.loc 2 640 0
	str	w3, [x29, 112]
	.loc 2 638 0
	strb	w2, [x29, 105]
	.loc 2 641 0
	ldr	w2, [x20, 16]
	.loc 2 642 0
	strb	w4, [x29, 104]
	.loc 2 641 0
	str	w2, [x29, 108]
	.loc 2 639 0
	strb	wzr, [x29, 97]
	.loc 2 643 0
	bl	rtl_set_skb_ip_summed
	.loc 2 647 0
	add	x0, x29, 144
	.loc 2 644 0
	mov	w1, 10240
	.loc 2 645 0
	ldrh	w2, [x21, 72]
	.loc 2 644 0
	strh	w1, [x29, 98]
	.loc 2 647 0
	ldrb	w1, [x0, -48]!
	.loc 2 645 0
	add	w2, w2, 1
	.loc 2 646 0
	strh	wzr, [x29, 106]
	.loc 2 647 0
	and	w1, w1, 15
	.loc 2 645 0
	strh	w2, [x29, 100]
	.loc 2 647 0
	bl	ip_fast_csum
	strh	w0, [x29, 106]
	.loc 2 649 0
	mov	x0, x24
	bl	rtl_get_skb_data
	add	x1, x0, 14
	ldp	x2, x3, [x29, 96]
	.loc 2 653 0
	mov	x0, x24
	.loc 2 651 0
	strb	wzr, [x21, 88]
	.loc 2 649 0
	stp	x2, x3, [x1]
	ldr	w2, [x29, 112]
	str	w2, [x1, 16]
	.loc 2 653 0
	bl	dev_queue_xmit
	.loc 2 654 0
	b	.L96
.L101:
.LBB727:
.LBB696:
.LBB694:
.LBB695:
	.loc 5 91 0
	add	x2, x25, 44
#APP
// 91 "./arch/arm64/include/asm/atomic_ll_sc.h" 1
	// atomic_sub_return
	prfm	pstl1strm, [x2]
1:	ldxr	w0, [x2]
	sub	w0, w0, 1
	stlxr	w1, w0, [x2]
	cbnz	w1, 1b
	dmb ish
// 0 "" 2
#NO_APP
.LBE695:
.LBE694:
	.loc 4 411 0
	cbz	w0, .L94
.L96:
.LBE696:
.LBE727:
	.loc 2 655 0
	ldp	x19, x20, [sp, 16]
	ldp	x21, x22, [sp, 32]
	ldp	x23, x24, [sp, 48]
	ldp	x25, x26, [sp, 64]
	ldp	x27, x28, [sp, 80]
	mov	w0, 0
	ldp	x29, x30, [sp], 144
	.cfi_restore 30
	.cfi_restore 29
	.cfi_restore 27
	.cfi_restore 28
	.cfi_restore 25
	.cfi_restore 26
	.cfi_restore 23
	.cfi_restore 24
	.cfi_restore 21
	.cfi_restore 22
	.cfi_restore 19
	.cfi_restore 20
	.cfi_def_cfa 31, 0
	ret
	.cfi_endproc
.LFE4080:
	.size	GenerateTCPENDACK, .-GenerateTCPENDACK
	.align	2
	.type	GenerateTCPFINACK, %function
GenerateTCPFINACK:
.LFB4081:
	.loc 2 658 0
	.cfi_startproc
	stp	x29, x30, [sp, -144]!
	.cfi_def_cfa_offset 144
	.cfi_offset 29, -144
	.cfi_offset 30, -136
	.loc 2 692 0
	adrp	x1, .LC10
	.loc 2 658 0
	add	x29, sp, 0
	.cfi_def_cfa_register 29
	stp	x21, x22, [sp, 32]
	.cfi_offset 21, -112
	.cfi_offset 22, -104
	mov	x22, x0
	.loc 2 692 0
	add	x0, x1, :lo12:.LC10
	.loc 2 658 0
	stp	x19, x20, [sp, 16]
	stp	x23, x24, [sp, 48]
	stp	x25, x26, [sp, 64]
	stp	x27, x28, [sp, 80]
	.cfi_offset 19, -128
	.cfi_offset 20, -120
	.cfi_offset 23, -96
	.cfi_offset 24, -88
	.cfi_offset 25, -80
	.cfi_offset 26, -72
	.cfi_offset 27, -64
	.cfi_offset 28, -56
	.loc 2 692 0
	bl	rtl_get_dev_by_name
	mov	x24, x0
	.loc 2 693 0
	mov	x0, x22
	.loc 2 696 0
	adrp	x21, .LANCHOR0
	.loc 2 693 0
	bl	rtl_ip_hdr
	mov	x20, x0
	.loc 2 696 0
	add	x0, x21, :lo12:.LANCHOR0
	.loc 2 694 0
	ldrb	w19, [x20]
	.loc 2 696 0
	ldrh	w1, [x0, 92]
	.loc 2 694 0
	ubfiz	x19, x19, 2, 4
	add	x23, x20, x19
	.loc 2 696 0
	ldrh	w2, [x20, x19]
	cmp	w2, w1
	bne	.L122
	.loc 2 696 0 is_stmt 0 discriminator 1
	ldr	w1, [x23, 4]
	ldr	w0, [x0, 96]
	cmp	w1, w0
	bne	.L122
	.loc 2 701 0 is_stmt 1
	mov	x1, x24
	add	x0, x20, 12
	bl	rtl_neigh_lookup
	mov	x25, x0
	.loc 2 702 0
	cbz	x0, .L122
	.loc 2 702 0 is_stmt 0 discriminator 1
	bl	rtl_get_hh_from_neigh
	cbnz	x0, .L126
	b	.L127
.L120:
.LBB728:
.LBB729:
	.loc 4 412 0 is_stmt 1
	mov	x0, x25
	bl	neigh_destroy
	b	.L122
.L126:
.LBE729:
.LBE728:
	.loc 2 711 0
	mov	w3, 32
	mov	w2, 0
	movk	w3, 0x208, lsl 16
	mov	w1, 32
	mov	x0, x22
	bl	skb_copy_expand
	mov	x24, x0
	.loc 2 712 0
	cbnz	x0, .L108
.LBB733:
.LBB734:
.LBB735:
.LBB736:
	.loc 5 91 0
	add	x2, x25, 44
#APP
// 91 "./arch/arm64/include/asm/atomic_ll_sc.h" 1
	// atomic_sub_return
	prfm	pstl1strm, [x2]
1:	ldxr	w0, [x2]
	sub	w0, w0, 1
	stlxr	w1, w0, [x2]
	cbnz	w1, 1b
	dmb ish
// 0 "" 2
#NO_APP
.LBE736:
.LBE735:
	.loc 4 411 0
	cbnz	w0, .L109
	.loc 4 412 0
	mov	x0, x25
	bl	neigh_destroy
.L109:
.LBE734:
.LBE733:
	.loc 2 717 0
	adrp	x0, .LC11
	add	x0, x0, :lo12:.LC11
	bl	printk
	.loc 2 718 0
	b	.L122
.L108:
	.loc 2 720 0
	bl	rtl_ip_hdr
	.loc 2 722 0
	ldrb	w1, [x0]
	mov	x0, x24
	ubfiz	w1, w1, 2, 4
	add	w1, w1, 20
	bl	skb_trim
	.loc 2 723 0
	mov	w1, 0
	mov	x0, x24
	bl	skb_put
	.loc 2 724 0
	mov	x0, x25
	bl	rtl_get_hh_from_neigh
	mov	x26, x0
.L111:
.LBB737:
.LBB738:
.LBB739:
.LBB740:
.LBB741:
.LBB742:
.LBB743:
.LBB744:
.LBB745:
	.loc 6 218 0
	ldr	w27, [x26, 4]
.LBE745:
.LBE744:
.LBE743:
	.loc 7 113 0
	tbz	x27, 0, .L110
.LBB746:
.LBB747:
	.loc 8 151 0
#APP
// 151 "./arch/arm64/include/asm/processor.h" 1
	yield
// 0 "" 2
#NO_APP
	b	.L111
.L110:
.LBE747:
.LBE746:
.LBE742:
.LBE741:
	.loc 7 148 0
#APP
// 148 "include/linux/seqlock.h" 1
	dmb ishld
// 0 "" 2
#NO_APP
.LBE740:
.LBE739:
.LBE738:
.LBE737:
	.loc 2 729 0
	mov	x0, x24
	bl	rtl_get_skb_data
	mov	x28, x0
	mov	x0, x26
	bl	rtl_get_data_from_hh
	ldp	x0, x1, [x0]
	stp	x0, x1, [x28, -16]
.LBB748:
.LBB749:
.LBB750:
	.loc 7 219 0
#APP
// 219 "include/linux/seqlock.h" 1
	dmb ishld
// 0 "" 2
#NO_APP
.LBE750:
.LBE749:
.LBE748:
	.loc 2 731 0
	ldr	w0, [x26, 4]
	cmp	w0, w27
	bne	.L111
	.loc 2 732 0
	mov	x0, x26
	bl	rtl_get_len_from_hh
	uxth	w1, w0
	mov	x0, x24
	bl	skb_push
.LBB751:
.LBB752:
.LBB753:
.LBB754:
	.loc 5 91 0
	add	x2, x25, 44
#APP
// 91 "./arch/arm64/include/asm/atomic_ll_sc.h" 1
	// atomic_sub_return
	prfm	pstl1strm, [x2]
1:	ldxr	w0, [x2]
	sub	w0, w0, 1
	stlxr	w1, w0, [x2]
	cbnz	w1, 1b
	dmb ish
// 0 "" 2
#NO_APP
.LBE754:
.LBE753:
	.loc 4 411 0
	cbnz	w0, .L113
	.loc 4 412 0
	mov	x0, x25
	bl	neigh_destroy
.L113:
.LBE752:
.LBE751:
	.loc 2 735 0
	mov	x1, 0
	mov	x0, x24
	bl	rtl_set_skb_nfct
	.loc 2 740 0
	ldrh	w0, [x23, 2]
	.loc 2 751 0
	add	x1, x21, :lo12:.LANCHOR0
	.loc 2 740 0
	strh	w0, [x29, 120]
	.loc 2 752 0
	mov	x0, x24
	.loc 2 742 0
	ldr	w3, [x23, 4]
	.loc 2 741 0
	ldrh	w4, [x20, x19]
	.loc 2 745 0
	ldrb	w2, [x29, 132]
	.loc 2 751 0
	ldrh	w1, [x1, 84]
	.loc 2 741 0
	strh	w4, [x29, 122]
	.loc 2 743 0
	ldr	w4, [x23, 8]
	.loc 2 744 0
	str	w3, [x29, 128]
	.loc 2 745 0
	mov	w3, 5
	bfi	w2, w3, 4, 4
	.loc 2 749 0
	mov	w3, 17
	.loc 2 751 0
	strh	w1, [x29, 134]
	.loc 2 749 0
	strb	w3, [x29, 133]
	.loc 2 743 0
	str	w4, [x29, 124]
	.loc 2 745 0
	strb	w2, [x29, 132]
	.loc 2 750 0
	strh	wzr, [x29, 138]
	.loc 2 752 0
	bl	rtl_get_skb_len
	.loc 2 754 0
	ldrb	w3, [x23, 12]
	.loc 2 752 0
	sub	w19, w0, #34
	.loc 2 677 0
	mov	w1, 20
	.loc 2 754 0
	ubfx	x3, x3, 4, 4
	lsl	w3, w3, 2
	.loc 2 756 0
	b	.L114
.L119:
	.loc 2 758 0
	ldrb	w2, [x2, 4072]
	.loc 2 759 0
	cmp	w2, 1
	bhi	.L115
	.loc 2 761 0
	add	w1, w1, 1
	.loc 2 762 0
	b	.L114
.L115:
	.loc 2 767 0
	cmp	w2, 8
	.loc 2 765 0
	ldrb	w0, [x0, 4072]
	.loc 2 767 0
	bne	.L117
	.loc 2 769 0
	add	x0, x29, 120
	.loc 2 770 0
	add	w2, w1, 6
	.loc 2 769 0
	add	w1, w1, 2
	.loc 2 770 0
	ldr	w4, [x0, x2]
	.loc 2 769 0
	ldr	w3, [x0, x1]
	.loc 2 771 0
	str	w4, [x0, x1]
	.loc 2 772 0
	str	w3, [x0, x2]
	.loc 2 773 0
	b	.L118
.L117:
	.loc 2 775 0
	add	w1, w1, w0
.L114:
	.loc 2 758 0
	sub	x0, x29, #3952
	.loc 2 756 0
	cmp	w1, w3
	.loc 2 758 0
	add	x2, x0, x1, uxtw
	.loc 2 765 0
	sub	x4, x29, #3952
	add	w0, w1, 1
	add	x0, x4, x0
	.loc 2 756 0
	bcc	.L119
	add	x0, x29, 120
.L118:
	.loc 2 777 0
	add	x21, x21, :lo12:.LANCHOR0
	.loc 2 780 0
	strh	wzr, [x29, 136]
	.loc 2 777 0
	ldrh	w4, [x29, 122]
	.loc 2 781 0
	mov	w1, w19
	.loc 2 778 0
	ldr	w3, [x29, 128]
	.loc 2 781 0
	mov	w2, 0
	ldr	w25, [x20, 12]
	ldr	w23, [x20, 16]
	.loc 2 777 0
	strh	w4, [x21, 100]
	.loc 2 778 0
	str	w3, [x21, 104]
	.loc 2 781 0
	bl	csum_partial
.LBB755:
.LBB756:
	.loc 9 77 0
	mov	w3, 6
	mov	w4, w0
	mov	w2, w19
	mov	w1, w23
	mov	w0, w25
	bl	csum_tcpudp_nofold
.LBB757:
.LBB758:
	.loc 9 56 0
	uxth	w1, w0
	add	w1, w1, w0, lsr 16
.LBE758:
.LBE757:
.LBE756:
.LBE755:
	.loc 2 782 0
	mov	x0, x24
.LBB762:
.LBB761:
.LBB760:
.LBB759:
	.loc 9 57 0
	lsr	w2, w1, 16
	add	w1, w2, w1, uxth
	.loc 9 58 0
	mvn	w1, w1
.LBE759:
.LBE760:
.LBE761:
.LBE762:
	.loc 2 781 0
	strh	w1, [x29, 136]
	.loc 2 782 0
	bl	rtl_get_skb_data
	add	x3, x0, 34
	add	x1, x29, 120
	.loc 2 784 0
	ldrb	w2, [x29, 96]
	mov	w0, 4
	.loc 2 786 0
	strh	wzr, [x29, 102]
	.loc 2 784 0
	bfi	w2, w0, 4, 4
	.loc 2 792 0
	mov	x0, x22
	.loc 2 782 0
	ldp	x4, x5, [x1]
	stp	x4, x5, [x3]
	.loc 2 791 0
	ldrb	w4, [x21, 86]
	.loc 2 792 0
	mov	w1, 0
	.loc 2 782 0
	ldr	w5, [x29, 136]
	str	w5, [x3, 16]
	.loc 2 785 0
	mov	w3, 5
	bfi	w2, w3, 0, 4
	strb	w2, [x29, 96]
	.loc 2 789 0
	ldr	w3, [x20, 12]
	.loc 2 787 0
	mov	w2, 6
	.loc 2 789 0
	str	w3, [x29, 112]
	.loc 2 787 0
	strb	w2, [x29, 105]
	.loc 2 790 0
	ldr	w2, [x20, 16]
	.loc 2 791 0
	strb	w4, [x29, 104]
	.loc 2 790 0
	str	w2, [x29, 108]
	.loc 2 788 0
	strb	wzr, [x29, 97]
	.loc 2 792 0
	bl	rtl_set_skb_ip_summed
	.loc 2 796 0
	add	x0, x29, 144
	.loc 2 793 0
	mov	w1, 10240
	.loc 2 794 0
	ldrh	w2, [x21, 72]
	.loc 2 793 0
	strh	w1, [x29, 98]
	.loc 2 796 0
	ldrb	w1, [x0, -48]!
	.loc 2 794 0
	add	w2, w2, 1
	.loc 2 795 0
	strh	wzr, [x29, 106]
	.loc 2 796 0
	and	w1, w1, 15
	.loc 2 794 0
	strh	w2, [x29, 100]
	.loc 2 796 0
	bl	ip_fast_csum
	strh	w0, [x29, 106]
	.loc 2 798 0
	mov	x0, x24
	bl	rtl_get_skb_data
	add	x1, x0, 14
	ldp	x2, x3, [x29, 96]
	.loc 2 803 0
	mov	x0, x24
	.loc 2 800 0
	strb	wzr, [x21, 87]
	.loc 2 798 0
	stp	x2, x3, [x1]
	.loc 2 801 0
	mov	w2, 1
	strb	w2, [x21, 88]
	.loc 2 798 0
	ldr	w2, [x29, 112]
	str	w2, [x1, 16]
	.loc 2 803 0
	bl	dev_queue_xmit
	.loc 2 804 0
	b	.L122
.L127:
.LBB763:
.LBB732:
.LBB730:
.LBB731:
	.loc 5 91 0
	add	x2, x25, 44
#APP
// 91 "./arch/arm64/include/asm/atomic_ll_sc.h" 1
	// atomic_sub_return
	prfm	pstl1strm, [x2]
1:	ldxr	w0, [x2]
	sub	w0, w0, 1
	stlxr	w1, w0, [x2]
	cbnz	w1, 1b
	dmb ish
// 0 "" 2
#NO_APP
.LBE731:
.LBE730:
	.loc 4 411 0
	cbz	w0, .L120
.L122:
.LBE732:
.LBE763:
	.loc 2 805 0
	ldp	x19, x20, [sp, 16]
	ldp	x21, x22, [sp, 32]
	ldp	x23, x24, [sp, 48]
	ldp	x25, x26, [sp, 64]
	ldp	x27, x28, [sp, 80]
	mov	w0, 0
	ldp	x29, x30, [sp], 144
	.cfi_restore 30
	.cfi_restore 29
	.cfi_restore 27
	.cfi_restore 28
	.cfi_restore 25
	.cfi_restore 26
	.cfi_restore 23
	.cfi_restore 24
	.cfi_restore 21
	.cfi_restore 22
	.cfi_restore 19
	.cfi_restore 20
	.cfi_def_cfa 31, 0
	ret
	.cfi_endproc
.LFE4081:
	.size	GenerateTCPFINACK, .-GenerateTCPFINACK
	.align	2
	.type	dos_timer_fn, %function
dos_timer_fn:
.LFB4116:
	.loc 2 3303 0
	.cfi_startproc
	sub	sp, sp, #64
	.cfi_def_cfa_offset 64
	stp	x29, x30, [sp, 16]
	.cfi_offset 29, -48
	.cfi_offset 30, -40
	add	x29, sp, 16
	.cfi_def_cfa 29, 48
	stp	x19, x20, [sp, 32]
	.cfi_offset 19, -32
	.cfi_offset 20, -24
	.loc 2 3304 0
	adrp	x20, .LANCHOR1
	.loc 2 3303 0
	str	x21, [sp, 48]
	.cfi_offset 21, -16
	.loc 2 3304 0
	add	x0, x20, :lo12:.LANCHOR1
	ldr	w12, [x0, 1904]
	cbz	w12, .L129
	.loc 2 3306 0
	ldr	w1, [x0, 1908]
	cmp	w1, 1
	bne	.L130
	.loc 2 3307 0
	ldr	w1, [x0, 1912]
	add	w1, w1, 1
	str	w1, [x0, 1912]
.L130:
.LBB772:
.LBB773:
	.loc 2 2366 0
	tst	w12, 30
	bne	.L175
	add	x0, x20, :lo12:.LANCHOR1
	adrp	x19, .LANCHOR0
	ldr	w21, [x0, 1916]
	b	.L132
.L175:
	adrp	x19, .LANCHOR0
	mov	w3, 0
	add	x0, x19, :lo12:.LANCHOR0
	mov	w4, 0
	add	x0, x0, 112
	mov	w5, 0
	mov	w6, 0
	.loc 2 2370 0
	and	w10, w12, 2
	.loc 2 2372 0
	and	w9, w12, 4
	.loc 2 2374 0
	and	w8, w12, 8
	.loc 2 2376 0
	and	w7, w12, 16
	.loc 2 2368 0
	add	x2, x0, 40960
.L131:
	.loc 2 2370 0
	ldrb	w1, [x0]
	cmp	w1, 1
	bne	.L133
	cbz	w10, .L134
	ldr	w1, [x0, 4]
	.loc 2 2371 0
	add	w11, w6, w1
	cmp	w1, wzr
	csel	w6, w11, w6, gt
	b	.L134
.L171:
	.loc 2 2372 0
	ldr	w1, [x0, 8]
	.loc 2 2373 0
	add	w11, w5, w1
	cmp	w1, wzr
	csel	w5, w11, w5, gt
	b	.L135
.L172:
	.loc 2 2374 0
	ldr	w1, [x0, 12]
	.loc 2 2375 0
	add	w11, w4, w1
	cmp	w1, wzr
	csel	w4, w11, w4, gt
	b	.L136
.L173:
	.loc 2 2376 0
	ldr	w1, [x0, 16]
	.loc 2 2377 0
	add	w11, w3, w1
	cmp	w1, wzr
	csel	w3, w11, w3, gt
.L133:
	.loc 2 2368 0
	add	x0, x0, 40
	cmp	x0, x2
	bne	.L131
	.loc 2 2381 0
	add	x1, x20, :lo12:.LANCHOR1
	ldr	w0, [x1, 1920]
	cmp	w0, w6
	blt	.L137
.L139:
	add	x0, x20, :lo12:.LANCHOR1
	ldr	w21, [x0, 1916]
	b	.L138
.L137:
	cmp	w0, wzr
	ble	.L139
	tbz	x12, 1, .L139
	.loc 2 2382 0
	ldr	w21, [x1, 1916]
	orr	w21, w21, 2
	str	w21, [x1, 1916]
.L138:
	.loc 2 2383 0
	add	x1, x20, :lo12:.LANCHOR1
	ldr	w0, [x1, 1924]
	cmp	w0, w5
	bge	.L140
	cmp	w0, wzr
	ble	.L140
	tbz	x12, 2, .L140
	.loc 2 2384 0
	orr	w21, w21, 4
	str	w21, [x1, 1916]
.L140:
	.loc 2 2385 0
	add	x1, x20, :lo12:.LANCHOR1
	ldr	w0, [x1, 1928]
	cmp	w4, w0
	ble	.L141
	tbz	x12, 3, .L141
	cmp	w0, wzr
	ble	.L141
	.loc 2 2386 0
	orr	w21, w21, 8
	str	w21, [x1, 1916]
.L141:
	.loc 2 2387 0
	add	x1, x20, :lo12:.LANCHOR1
	ldr	w0, [x1, 1932]
	cmp	w3, w0
	ble	.L132
	cmp	w0, wzr
	ble	.L132
	tbz	x12, 4, .L132
	.loc 2 2388 0
	orr	w21, w21, 16
	str	w21, [x1, 1916]
.L132:
.LBE773:
.LBE772:
.LBB775:
.LBB776:
	.loc 2 3018 0
	tbz	x21, 1, .L142
	.loc 2 3025 0
	adrp	x0, .LC13
	add	x0, x0, :lo12:.LC13
	bl	printk
.L142:
	.loc 2 3032 0
	tbz	x21, 2, .L143
	.loc 2 3039 0
	adrp	x0, .LC14
	add	x0, x0, :lo12:.LC14
	bl	printk
.L143:
	.loc 2 3046 0
	tbz	x21, 3, .L144
	.loc 2 3053 0
	adrp	x0, .LC15
	add	x0, x0, :lo12:.LC15
	bl	printk
.L144:
	.loc 2 3060 0
	tbz	x21, 4, .L145
	.loc 2 3067 0
	adrp	x0, .LC16
	add	x0, x0, :lo12:.LC16
	bl	printk
.L145:
	.loc 2 3074 0
	tbz	x21, 5, .L146
	.loc 2 3082 0
	add	x0, x20, :lo12:.LANCHOR1
	add	x1, x0, 2048
	add	x0, x0, 1936
	ldrb	w4, [x0, 119]
	ldrb	w7, [x0, 6]
	ldrb	w6, [x0, 5]
	ldrb	w5, [x0, 4]
	ldrb	w0, [x0, 7]
	ldrb	w3, [x1, 6]
	str	w0, [sp]
	adrp	x0, .LC17
	add	x0, x0, :lo12:.LC17
	ldrb	w2, [x1, 5]
	ldrb	w1, [x1, 4]
	bl	printk
.L146:
	.loc 2 3089 0
	tbz	x21, 6, .L147
	.loc 2 3098 0
	add	x0, x20, :lo12:.LANCHOR1
	add	x1, x0, 2048
	add	x0, x0, 1936
	ldrb	w4, [x0, 123]
	ldrb	w7, [x0, 10]
	ldrb	w6, [x0, 9]
	ldrb	w5, [x0, 8]
	ldrb	w0, [x0, 11]
	ldrb	w3, [x1, 10]
	str	w0, [sp]
	adrp	x0, .LC18
	add	x0, x0, :lo12:.LC18
	ldrb	w2, [x1, 9]
	ldrb	w1, [x1, 8]
	bl	printk
.L147:
	.loc 2 3105 0
	tbz	x21, 7, .L148
	.loc 2 3113 0
	add	x0, x20, :lo12:.LANCHOR1
	add	x1, x0, 2048
	add	x0, x0, 1936
	ldrb	w4, [x0, 127]
	ldrb	w7, [x0, 14]
	ldrb	w6, [x0, 13]
	ldrb	w5, [x0, 12]
	ldrb	w0, [x0, 15]
	ldrb	w3, [x1, 14]
	str	w0, [sp]
	adrp	x0, .LC19
	add	x0, x0, :lo12:.LC19
	ldrb	w2, [x1, 13]
	ldrb	w1, [x1, 12]
	bl	printk
.L148:
	.loc 2 3120 0
	tbz	x21, 8, .L149
	.loc 2 3128 0
	add	x0, x20, :lo12:.LANCHOR1
	add	x1, x0, 2048
	add	x0, x0, 1936
	ldrb	w4, [x0, 131]
	ldrb	w7, [x0, 18]
	ldrb	w6, [x0, 17]
	ldrb	w5, [x0, 16]
	ldrb	w0, [x0, 19]
	ldrb	w3, [x1, 18]
	str	w0, [sp]
	adrp	x0, .LC20
	add	x0, x0, :lo12:.LC20
	ldrb	w2, [x1, 17]
	ldrb	w1, [x1, 16]
	bl	printk
.L149:
	.loc 2 3135 0
	tbz	x21, 9, .L150
	.loc 2 3144 0
	add	x0, x20, :lo12:.LANCHOR1
	add	x1, x0, 2048
	add	x0, x0, 1936
	ldrb	w4, [x0, 139]
	ldrb	w7, [x0, 26]
	ldrb	w6, [x0, 25]
	ldrb	w5, [x0, 24]
	ldrb	w0, [x0, 27]
	ldrb	w3, [x1, 26]
	str	w0, [sp]
	adrp	x0, .LC21
	add	x0, x0, :lo12:.LC21
	ldrb	w2, [x1, 25]
	ldrb	w1, [x1, 24]
	bl	printk
.L150:
	.loc 2 3151 0
	tbz	x21, 15, .L151
	.loc 2 3159 0
	add	x0, x20, :lo12:.LANCHOR1
	add	x1, x0, 2048
	add	x0, x0, 1936
	ldrb	w4, [x0, 163]
	ldrb	w7, [x0, 50]
	ldrb	w6, [x0, 49]
	ldrb	w5, [x0, 48]
	ldrb	w0, [x0, 51]
	ldrb	w3, [x1, 50]
	str	w0, [sp]
	adrp	x0, .LC22
	add	x0, x0, :lo12:.LC22
	ldrb	w2, [x1, 49]
	ldrb	w1, [x1, 48]
	bl	printk
.L151:
	.loc 2 3166 0
	tbz	x21, 16, .L152
	.loc 2 3174 0
	add	x0, x20, :lo12:.LANCHOR1
	add	x1, x0, 2048
	add	x0, x0, 1936
	ldrb	w4, [x0, 167]
	ldrb	w7, [x0, 54]
	ldrb	w6, [x0, 53]
	ldrb	w5, [x0, 52]
	ldrb	w0, [x0, 55]
	ldrb	w3, [x1, 54]
	str	w0, [sp]
	adrp	x0, .LC23
	add	x0, x0, :lo12:.LC23
	ldrb	w2, [x1, 53]
	ldrb	w1, [x1, 52]
	bl	printk
.L152:
	.loc 2 3181 0
	tbz	x21, 11, .L153
	.loc 2 3189 0
	add	x0, x20, :lo12:.LANCHOR1
	add	x1, x0, 2048
	add	x0, x0, 1936
	ldrb	w4, [x0, 147]
	ldrb	w7, [x0, 34]
	ldrb	w6, [x0, 33]
	ldrb	w5, [x0, 32]
	ldrb	w0, [x0, 35]
	ldrb	w3, [x1, 34]
	str	w0, [sp]
	adrp	x0, .LC24
	add	x0, x0, :lo12:.LC24
	ldrb	w2, [x1, 33]
	ldrb	w1, [x1, 32]
	bl	printk
.L153:
	.loc 2 3196 0
	tbz	x21, 18, .L154
	.loc 2 3204 0
	add	x0, x20, :lo12:.LANCHOR1
	add	x1, x0, 2048
	add	x0, x0, 1936
	ldrb	w4, [x0, 175]
	ldrb	w7, [x0, 62]
	ldrb	w6, [x0, 61]
	ldrb	w5, [x0, 60]
	ldrb	w0, [x0, 63]
	ldrb	w3, [x1, 62]
	str	w0, [sp]
	adrp	x0, .LC25
	add	x0, x0, :lo12:.LC25
	ldrb	w2, [x1, 61]
	ldrb	w1, [x1, 60]
	bl	printk
.L154:
	.loc 2 3211 0
	tbz	x21, 17, .L155
	.loc 2 3219 0
	add	x0, x20, :lo12:.LANCHOR1
	add	x1, x0, 2048
	add	x0, x0, 1936
	ldrb	w4, [x0, 171]
	ldrb	w7, [x0, 58]
	ldrb	w6, [x0, 57]
	ldrb	w5, [x0, 56]
	ldrb	w0, [x0, 59]
	ldrb	w3, [x1, 58]
	str	w0, [sp]
	adrp	x0, .LC26
	add	x0, x0, :lo12:.LC26
	ldrb	w2, [x1, 57]
	ldrb	w1, [x1, 56]
	bl	printk
.L155:
	.loc 2 3226 0
	tbz	x21, 14, .L156
	.loc 2 3235 0
	add	x0, x20, :lo12:.LANCHOR1
	add	x1, x0, 2048
	add	x0, x0, 1936
	ldrb	w4, [x0, 159]
	ldrb	w7, [x0, 46]
	ldrb	w6, [x0, 45]
	ldrb	w5, [x0, 44]
	ldrb	w0, [x0, 47]
	ldrb	w3, [x1, 46]
	str	w0, [sp]
	adrp	x0, .LC27
	add	x0, x0, :lo12:.LC27
	ldrb	w2, [x1, 45]
	ldrb	w1, [x1, 44]
	bl	printk
.L156:
	.loc 2 3242 0
	tbz	x21, 10, .L157
	.loc 2 3250 0
	add	x0, x20, :lo12:.LANCHOR1
	add	x1, x0, 2048
	add	x0, x0, 1936
	ldrb	w4, [x0, 143]
	ldrb	w7, [x0, 30]
	ldrb	w6, [x0, 29]
	ldrb	w5, [x0, 28]
	ldrb	w0, [x0, 31]
	ldrb	w3, [x1, 30]
	str	w0, [sp]
	adrp	x0, .LC28
	add	x0, x0, :lo12:.LC28
	ldrb	w2, [x1, 29]
	ldrb	w1, [x1, 28]
	bl	printk
.L157:
	.loc 2 3257 0
	tbz	x21, 12, .L158
	.loc 2 3265 0
	add	x0, x20, :lo12:.LANCHOR1
	add	x1, x0, 2048
	add	x0, x0, 1936
	ldrb	w4, [x0, 151]
	ldrb	w7, [x0, 38]
	ldrb	w6, [x0, 37]
	ldrb	w5, [x0, 36]
	ldrb	w0, [x0, 39]
	ldrb	w3, [x1, 38]
	str	w0, [sp]
	adrp	x0, .LC29
	add	x0, x0, :lo12:.LC29
	ldrb	w2, [x1, 37]
	ldrb	w1, [x1, 36]
	bl	printk
.L158:
	.loc 2 3272 0
	tbz	x21, 13, .L159
	.loc 2 3280 0
	add	x0, x20, :lo12:.LANCHOR1
	add	x1, x0, 2048
	add	x0, x0, 1936
	ldrb	w4, [x0, 155]
	ldrb	w7, [x0, 42]
	ldrb	w6, [x0, 41]
	ldrb	w5, [x0, 40]
	ldrb	w0, [x0, 43]
	ldrb	w3, [x1, 42]
	ldrb	w2, [x1, 41]
	ldrb	w1, [x1, 40]
	str	w0, [sp]
	adrp	x0, .LC30
	add	x0, x0, :lo12:.LC30
	bl	printk
.L159:
	.loc 2 3287 0
	add	x2, x20, :lo12:.LANCHOR1
.LBE776:
.LBE775:
.LBB778:
.LBB779:
	.loc 2 2345 0
	add	x0, x19, :lo12:.LANCHOR0
	add	x0, x0, 112
	.loc 2 2346 0
	add	x1, x0, 40960
.LBE779:
.LBE778:
.LBB781:
.LBB777:
	.loc 2 3287 0
	str	wzr, [x2, 1916]
.L160:
.LBE777:
.LBE781:
.LBB782:
.LBB780:
	.loc 2 2348 0
	strb	wzr, [x0]
	.loc 2 2355 0
	add	x0, x0, 40
	.loc 2 2349 0
	str	wzr, [x0, -12]
	.loc 2 2350 0
	str	wzr, [x0, -36]
	.loc 2 2351 0
	str	wzr, [x0, -32]
	.loc 2 2352 0
	str	wzr, [x0, -28]
	.loc 2 2353 0
	str	wzr, [x0, -24]
	.loc 2 2354 0
	str	wzr, [x0, -16]
	.loc 2 2346 0
	cmp	x0, x1
	bne	.L160
.LBE780:
.LBE782:
	.loc 2 3313 0
	add	x0, x20, :lo12:.LANCHOR1
	ldr	w2, [x0, 1912]
	ldr	w1, [x0, 2156]
	cmp	w2, w1
	bge	.L161
	.loc 2 3313 0 is_stmt 0 discriminator 1
	ldr	w0, [x0, 1904]
	tbz	x0, 22, .L161
.L165:
	.loc 2 3320 0 is_stmt 1
	adrp	x2, jiffies
	add	x1, x20, :lo12:.LANCHOR1
	ldr	x3, [x2, #:lo12:jiffies]
	ldr	x0, [x1, 2160]
	sub	x0, x0, x3
	cmn	x0, 100
	bpl	.L163
	b	.L274
.L161:
	.loc 2 3315 0
	add	x1, x20, :lo12:.LANCHOR1
	.loc 2 3316 0
	mov	x0, 0
.LBB783:
.LBB784:
	.loc 2 3296 0
	mov	x3, x1
.LBE784:
.LBE783:
	.loc 2 3315 0
	str	wzr, [x1, 1908]
	.loc 2 3316 0
	str	wzr, [x1, 1912]
.L164:
.LBB786:
.LBB785:
	.loc 2 3296 0
	add	x2, x3, 2048
	.loc 2 3297 0
	add	x1, x3, 1936
	.loc 2 3296 0
	str	wzr, [x0, x2]
	.loc 2 3297 0
	str	wzr, [x0, x1]
	add	x0, x0, 4
	.loc 2 3294 0
	cmp	x0, 108
	bne	.L164
	b	.L165
.L274:
.LBE785:
.LBE786:
	.loc 2 3321 0
	str	wzr, [x1, 2168]
.L163:
	.loc 2 3325 0
	add	x1, x20, :lo12:.LANCHOR1
	ldr	w0, [x1, 2172]
	cmp	w0, 3000
	bls	.L166
	.loc 2 3326 0
	ldr	w0, [x1, 1904]
	cbz	w0, .L174
	.loc 2 3327 0
	str	w0, [x1, 2176]
	.loc 2 3328 0
	str	wzr, [x1, 1904]
	b	.L174
.L166:
	.loc 2 3333 0
	add	x1, x20, :lo12:.LANCHOR1
	ldr	w3, [x1, 2176]
	cbz	w3, .L169
	.loc 2 3334 0
	str	w3, [x1, 1904]
	.loc 2 3335 0
	str	wzr, [x1, 2176]
.L169:
	.loc 2 3339 0
	cbz	w0, .L170
.L174:
	.loc 2 3340 0
	add	x0, x20, :lo12:.LANCHOR1
	str	wzr, [x0, 2172]
.L170:
	.loc 2 3343 0
	ldr	x1, [x2, #:lo12:jiffies]
	add	x0, x20, :lo12:.LANCHOR1
	add	x0, x0, 2184
	add	x1, x1, 100
	bl	mod_timer
	.loc 2 3344 0
	ldr	x21, [x29, 32]
	add	sp, x29, 0
	ldp	x19, x20, [sp, 16]
	ldp	x29, x30, [sp], 48
	.cfi_remember_state
	.cfi_restore 30
	.cfi_restore 29
	.cfi_restore 21
	.cfi_restore 19
	.cfi_restore 20
	.cfi_def_cfa 31, 0
	ret
.L134:
	.cfi_restore_state
.LBB787:
.LBB774:
	.loc 2 2372 0
	cbnz	w9, .L171
.L135:
	.loc 2 2374 0
	cbnz	w8, .L172
.L136:
	.loc 2 2376 0
	cbnz	w7, .L173
	b	.L133
.L129:
.LBE774:
.LBE787:
	.loc 2 3325 0
	ldr	w0, [x0, 2172]
	adrp	x2, jiffies
	cmp	w0, 3000
	bhi	.L174
	b	.L166
	.cfi_endproc
.LFE4116:
	.size	dos_timer_fn, .-dos_timer_fn
	.align	2
	.type	dos_pkt_locate.isra.4, %function
dos_pkt_locate.isra.4:
.LFB4139:
	.loc 2 2503 0
	.cfi_startproc
	.loc 2 2509 0
	adrp	x5, .LANCHOR1
	.loc 2 2508 0
	and	x1, x0, 1023
	.loc 2 2509 0
	add	x8, x5, :lo12:.LANCHOR1
	.loc 2 2508 0
	adrp	x2, .LANCHOR0
	.loc 2 2509 0
	add	x6, x8, x0, uxtb 2
	.loc 2 2508 0
	add	x4, x2, :lo12:.LANCHOR0
	lsl	x3, x1, 5
	add	x4, x4, 112
	add	x3, x3, x1, lsl 3
	.loc 2 2509 0
	ldr	w7, [x6, 2232]
	.loc 2 2508 0
	add	x6, x4, x3
	.loc 2 2509 0
	cmp	w7, w0
	bne	.L276
	ldr	w8, [x6, 28]
	cmp	w7, w8
	bne	.L277
	.loc 2 2511 0
	strb	wzr, [x4, x3]
	.loc 2 2512 0
	mov	w3, 0
	b	.L278
.L276:
	.loc 2 2514 0
	ldr	w7, [x6, 28]
	cmp	w7, w0
	beq	.L279
.L277:
	lsl	x3, x1, 5
	add	x2, x2, :lo12:.LANCHOR0
	add	x1, x3, x1, lsl 3
	add	x2, x2, 112
	add	x7, x2, x1
	.loc 2 2527 0
	mov	w3, 0
	.loc 2 2514 0
	ldrb	w4, [x2, x1]
	cbnz	w4, .L278
	.loc 2 2518 0
	add	x5, x5, :lo12:.LANCHOR1
	.loc 2 2517 0
	mov	w3, 1
	.loc 2 2516 0
	str	w0, [x7, 28]
	.loc 2 2517 0
	strb	w3, [x2, x1]
	.loc 2 2519 0
	mov	w3, 1
	.loc 2 2518 0
	str	x6, [x5, 3256]
	b	.L278
.L279:
	.loc 2 2521 0
	ldrb	w0, [x4, x3]
	.loc 2 2527 0
	mov	w3, 0
	.loc 2 2521 0
	cmp	w0, 1
	bne	.L278
	.loc 2 2523 0
	str	x6, [x8, 3256]
	.loc 2 2524 0
	mov	w3, w0
.L278:
	.loc 2 2528 0
	mov	w0, w3
	ret
	.cfi_endproc
.LFE4139:
	.size	dos_pkt_locate.isra.4, .-dos_pkt_locate.isra.4
	.align	2
	.type	find_pattern.constprop.13, %function
find_pattern.constprop.13:
.LFB4147:
	.loc 1 272 0
	.cfi_startproc
	stp	x29, x30, [sp, -96]!
	.cfi_def_cfa_offset 96
	.cfi_offset 29, -96
	.cfi_offset 30, -88
	add	x29, sp, 0
	.cfi_def_cfa_register 29
	.loc 1 277 0
	str	wzr, [x5]
	.loc 1 272 0
	stp	x19, x20, [sp, 16]
	stp	x21, x22, [sp, 32]
	stp	x23, x24, [sp, 48]
	stp	x25, x26, [sp, 64]
	stp	x27, x28, [sp, 80]
	.cfi_offset 19, -80
	.cfi_offset 20, -72
	.cfi_offset 21, -64
	.cfi_offset 22, -56
	.cfi_offset 23, -48
	.cfi_offset 24, -40
	.cfi_offset 25, -32
	.cfi_offset 26, -24
	.cfi_offset 27, -16
	.cfi_offset 28, -8
	.loc 1 272 0
	mov	x24, x5
	mov	x26, x4
	mov	x20, x0
	mov	x21, x1
	mov	x19, x3
	mov	x27, x2
	mov	x22, x0
	.loc 1 277 0
	str	wzr, [x4]
	.loc 1 275 0
	mov	w25, 0
	.loc 1 278 0
	mov	x23, 0
	sub	x28, x1, x3
.L288:
	.loc 1 280 0
	ldrb	w0, [x22]
	cmp	w0, 13
	bne	.L283
	.loc 1 282 0
	tbnz	x25, 0, .L294
	b	.L296
.L283:
	.loc 1 285 0
	cmp	w0, 10
	bne	.L294
	.loc 1 287 0
	tbz	x25, 0, .L294
.L296:
	add	w25, w25, 1
	.loc 1 292 0
	cmp	w25, 3
	ble	.L284
.L289:
	.loc 1 304 0
	mov	w0, 0
	b	.L286
.L294:
	.loc 1 287 0
	mov	w25, 0
.L284:
	.loc 1 295 0
	mov	x2, x19
	mov	x1, x27
	mov	x0, x22
	bl	memcmp
	cbz	w0, .L287
	.loc 1 278 0
	add	x23, x23, 1
	add	x22, x22, 1
	cmp	x23, x28
	bls	.L288
	b	.L289
.L287:
	.loc 1 297 0
	add	w0, w23, w19
	.loc 1 298 0
	mov	x1, 0
	.loc 1 297 0
	str	w0, [x26]
	b	.L290
.L291:
	.loc 1 299 0
	cmp	x0, x21
	.loc 1 298 0
	add	x1, x1, 1
	add	x0, x0, 1
	.loc 1 299 0
	bhi	.L289
.L290:
	.loc 1 298 0
	ldrb	w2, [x20, x0]
	cmp	w2, 13
	bne	.L291
	.loc 1 300 0
	str	w1, [x24]
	.loc 1 301 0
	mov	w0, 1
.L286:
	.loc 1 306 0
	ldp	x19, x20, [sp, 16]
	ldp	x21, x22, [sp, 32]
	ldp	x23, x24, [sp, 48]
	ldp	x25, x26, [sp, 64]
	ldp	x27, x28, [sp, 80]
	ldp	x29, x30, [sp], 96
	.cfi_restore 30
	.cfi_restore 29
	.cfi_restore 27
	.cfi_restore 28
	.cfi_restore 25
	.cfi_restore 26
	.cfi_restore 23
	.cfi_restore 24
	.cfi_restore 21
	.cfi_restore 22
	.cfi_restore 19
	.cfi_restore 20
	.cfi_def_cfa 31, 0
	ret
	.cfi_endproc
.LFE4147:
	.size	find_pattern.constprop.13, .-find_pattern.constprop.13
	.align	2
	.global	rtl_url_filter_fastpath
	.type	rtl_url_filter_fastpath, %function
rtl_url_filter_fastpath:
.LFB4060:
	.loc 1 371 0
	.cfi_startproc
	stp	x29, x30, [sp, -96]!
	.cfi_def_cfa_offset 96
	.cfi_offset 29, -96
	.cfi_offset 30, -88
	add	x29, sp, 0
	.cfi_def_cfa_register 29
	stp	x19, x20, [sp, 16]
	.cfi_offset 19, -80
	.cfi_offset 20, -72
	mov	x19, x0
	.loc 1 380 0
	mov	x0, x1
	.loc 1 371 0
	stp	x21, x22, [sp, 32]
	stp	x23, x24, [sp, 48]
	str	x25, [sp, 64]
	.cfi_offset 21, -64
	.cfi_offset 22, -56
	.cfi_offset 23, -48
	.cfi_offset 24, -40
	.cfi_offset 25, -32
	.loc 1 371 0
	mov	x20, x1
	.loc 1 380 0
	bl	strlen
	cmp	x0, 1
	bls	.L312
.LBB801:
.LBB802:
	.loc 1 381 0
	mov	x0, x19
	bl	rtl_ip_hdr
	mov	x19, x0
	.loc 1 382 0
	ldrb	w0, [x0, 9]
	cmp	w0, 6
	bne	.L312
	.loc 1 383 0
	ldrb	w21, [x19]
.LBB803:
.LBB804:
	.loc 3 470 0
	adrp	x0, kmalloc_caches+88
.LBB805:
.LBB806:
	.loc 3 369 0
	mov	w1, 192
.LBE806:
.LBE805:
.LBE804:
.LBE803:
	.loc 1 383 0
	ubfiz	x21, x21, 2, 4
.LBB816:
.LBB813:
.LBB810:
.LBB807:
	.loc 3 369 0
	movk	w1, 0x240, lsl 16
.LBE807:
.LBE810:
.LBE813:
.LBE816:
	.loc 1 383 0
	add	x2, x19, x21
.LBB817:
.LBB814:
.LBB811:
.LBB808:
	.loc 3 369 0
	ldr	x0, [x0, #:lo12:kmalloc_caches+88]
.LBE808:
.LBE811:
.LBE814:
.LBE817:
	.loc 1 387 0
	ldrb	w21, [x2, 12]
	ubfx	x21, x21, 4, 4
	ubfiz	x21, x21, 2, 4
	add	x21, x2, x21
.LBB818:
.LBB815:
.LBB812:
.LBB809:
	.loc 3 369 0
	bl	kmem_cache_alloc
	mov	x23, x0
.LBE809:
.LBE812:
.LBE815:
.LBE818:
	.loc 1 395 0
	cbz	x0, .L312
	ldrh	w22, [x19, 2]
	.loc 1 400 0
	adrp	x24, .LC31
	.loc 1 399 0
	ldrb	w3, [x19]
	.loc 1 400 0
	add	x24, x24, :lo12:.LC31
	rev16	w22, w22
	mov	x2, 4
	mov	x1, x24
	mov	x0, x21
	uxth	w25, w22
	.loc 1 399 0
	and	w22, w3, 15
	.loc 1 400 0
	bl	memcmp
	mov	w19, w0
	cbz	w0, .L302
	.loc 1 402 0
	mov	x0, x23
	.loc 1 403 0
	mov	w19, 0
	.loc 1 402 0
	bl	kfree
	b	.L316
.L302:
	.loc 1 399 0
	sub	w22, w25, w22, lsl 3
	.loc 1 405 0
	adrp	x2, .LC32
	add	x5, x29, 88
	add	x4, x29, 84
	sxtw	x22, w22
	add	x2, x2, :lo12:.LC32
	mov	x3, 6
	mov	x1, x22
	mov	x0, x21
	bl	find_pattern.constprop.13
	.loc 1 406 0
	cbz	w0, .L317
	.loc 1 411 0
	ldrsw	x1, [x29, 84]
	mov	x0, x23
	ldrsw	x2, [x29, 88]
	add	x1, x21, x1
	bl	strncpy
	.loc 1 412 0
	ldrsw	x0, [x29, 88]
	.loc 1 413 0
	add	x5, x29, 92
	add	x4, x29, 84
	mov	x3, 4
	mov	x2, x24
	mov	x1, x22
	.loc 1 412 0
	strb	wzr, [x23, x0]
	.loc 1 413 0
	mov	x0, x21
	bl	find_pattern.constprop.13
	.loc 1 414 0
	cbz	w0, .L317
	ldr	w2, [x29, 92]
	sub	w2, w2, #9
	str	w2, [x29, 92]
	cmp	w2, wzr
	ble	.L317
	.loc 1 419 0
	ldrsw	x1, [x29, 84]
	sxtw	x2, w2
	ldrsw	x0, [x29, 88]
	add	x1, x21, x1
	add	x0, x23, x0
	bl	strncpy
	.loc 1 420 0
	ldrsw	x1, [x29, 92]
	.loc 1 469 0
	mov	x0, x23
	.loc 1 420 0
	ldrsw	x2, [x29, 88]
	add	x1, x23, x1
	strb	wzr, [x1, x2]
	.loc 1 469 0
	bl	strlen
	mov	x21, x0
	mov	x0, x20
	bl	strlen
.LBB819:
.LBB820:
	.loc 1 240 0
	cmp	x21, x0
.LBE820:
.LBE819:
	.loc 1 469 0
	mov	x22, x0
.LBB823:
.LBB821:
	.loc 1 240 0
	bcc	.L306
	mov	w21, 0
	b	.L307
.L309:
	.loc 1 244 0
	bl	memcmp
	cbz	w0, .L308
.L307:
	.loc 1 242 0
	add	x3, x23, x21, sxtw
	.loc 1 244 0
	mov	x2, x22
	mov	x0, x3
	mov	x1, x20
	.loc 1 242 0
	add	w21, w21, 1
	ldrb	w3, [x3, x22]
	cbnz	w3, .L309
	b	.L306
.L318:
.LBE821:
.LBE823:
	.loc 1 477 0
	str	w0, [x20, 3264]
	b	.L316
.L312:
.LBE802:
.LBE801:
	.loc 1 380 0
	mov	w19, 0
	b	.L316
.L306:
.LBB826:
.LBB825:
	.loc 1 471 0
	adrp	x20, .LANCHOR1
	adrp	x2, .LC33
	add	x20, x20, :lo12:.LANCHOR1
	mov	x3, x23
	add	x2, x2, :lo12:.LC33
	mov	x1, 32
	add	x0, x20, 3272
	bl	snprintf
	.loc 1 473 0
	mov	x0, x23
	bl	kfree
	.loc 1 476 0
	adrp	x0, .LANCHOR0+56
	ldr	w0, [x0, #:lo12:.LANCHOR0+56]
	cmp	w0, 1
	bne	.L316
	b	.L318
.L308:
	.loc 1 471 0
	adrp	x0, .LANCHOR1
	adrp	x2, .LC33
	add	x0, x0, :lo12:.LANCHOR1
	mov	x3, x23
	add	x2, x2, :lo12:.LC33
	mov	x1, 32
	add	x0, x0, 3272
.LBB824:
.LBB822:
	.loc 1 247 0
	mov	w19, 1
.LBE822:
.LBE824:
	.loc 1 471 0
	bl	snprintf
.L317:
	.loc 1 473 0
	mov	x0, x23
	bl	kfree
.L316:
.LBE825:
.LBE826:
	.loc 1 481 0
	mov	w0, w19
	ldr	x25, [sp, 64]
	ldp	x19, x20, [sp, 16]
	ldp	x21, x22, [sp, 32]
	ldp	x23, x24, [sp, 48]
	ldp	x29, x30, [sp], 96
	.cfi_restore 30
	.cfi_restore 29
	.cfi_restore 25
	.cfi_restore 23
	.cfi_restore 24
	.cfi_restore 21
	.cfi_restore 22
	.cfi_restore 19
	.cfi_restore 20
	.cfi_def_cfa 31, 0
	ret
	.cfi_endproc
.LFE4060:
	.size	rtl_url_filter_fastpath, .-rtl_url_filter_fastpath
	.align	2
	.global	need_filter
	.type	need_filter, %function
need_filter:
.LFB4056:
	.loc 1 72 0
	.cfi_startproc
	stp	x29, x30, [sp, -48]!
	.cfi_def_cfa_offset 48
	.cfi_offset 29, -48
	.cfi_offset 30, -40
	add	x29, sp, 0
	.cfi_def_cfa_register 29
	stp	x19, x20, [sp, 16]
	.cfi_offset 19, -32
	.cfi_offset 20, -24
	.loc 1 82 0
	adrp	x20, .LC10
	.loc 1 72 0
	str	x21, [sp, 32]
	.cfi_offset 21, -16
	.loc 1 82 0
	add	x20, x20, :lo12:.LC10
	.loc 1 80 0
	bl	rtl_ip_hdr
	mov	x21, x0
	.loc 1 82 0
	mov	x0, x20
	bl	rtl_get_dev_by_name
	cbz	x0, .L320
.LBB827:
.LBB828:
.LBB829:
.LBB830:
.LBB831:
.LBB832:
	.loc 6 218 0
	ldr	x0, [x0, 752]
.LBE832:
.LBE831:
.LBE830:
.LBE829:
.LBE828:
.LBE827:
	.loc 1 85 0
	cbz	x0, .L320
	.loc 1 87 0
	ldr	x19, [x0, 16]
	b	.L321
.L323:
	.loc 1 89 0
	bl	strcmp
	cbz	w0, .L322
	.loc 1 87 0 discriminator 2
	ldr	x19, [x19, 16]
.L321:
	.loc 1 89 0 discriminator 1
	add	x1, x19, 72
	mov	x0, x20
	.loc 1 87 0 discriminator 1
	cbnz	x19, .L323
.L320:
	.loc 1 105 0
	adrp	x20, .LC34
	add	x20, x20, :lo12:.LC34
	mov	x0, x20
	bl	rtl_get_dev_by_name
	cbz	x0, .L324
.LBB833:
.LBB834:
.LBB835:
.LBB836:
.LBB837:
.LBB838:
	.loc 6 218 0
	ldr	x0, [x0, 752]
.LBE838:
.LBE837:
.LBE836:
.LBE835:
.LBE834:
.LBE833:
	.loc 1 107 0
	cbnz	x0, .L325
.L330:
	.loc 1 163 0
	mov	w0, 1
	b	.L343
.L325:
	.loc 1 108 0
	ldr	x19, [x0, 16]
	b	.L327
.L329:
	.loc 1 109 0
	bl	strcmp
	cbz	w0, .L328
	.loc 1 108 0 discriminator 2
	ldr	x19, [x19, 16]
.L327:
	.loc 1 109 0 discriminator 1
	add	x1, x19, 72
	mov	x0, x20
	.loc 1 108 0 discriminator 1
	cbnz	x19, .L329
	b	.L330
.L324:
	.loc 1 124 0
	adrp	x20, .LC35
	add	x20, x20, :lo12:.LC35
	mov	x0, x20
	bl	rtl_get_dev_by_name
	cbz	x0, .L331
.LBB839:
.LBB840:
.LBB841:
.LBB842:
.LBB843:
.LBB844:
	.loc 6 218 0
	ldr	x0, [x0, 752]
.LBE844:
.LBE843:
.LBE842:
.LBE841:
.LBE840:
.LBE839:
	.loc 1 128 0
	cbz	x0, .L330
	.loc 1 129 0
	ldr	x19, [x0, 16]
	b	.L332
.L334:
	.loc 1 133 0
	bl	strcmp
	cbz	w0, .L336
	.loc 1 129 0 discriminator 2
	ldr	x19, [x19, 16]
.L332:
	.loc 1 133 0 discriminator 1
	add	x1, x19, 72
	mov	x0, x20
	.loc 1 129 0 discriminator 1
	cbnz	x19, .L334
	b	.L330
.L331:
	.loc 1 147 0
	adrp	x20, .LC36
	add	x20, x20, :lo12:.LC36
	mov	x0, x20
	bl	rtl_get_dev_by_name
	cbz	x0, .L330
.LBB845:
.LBB846:
.LBB847:
.LBB848:
.LBB849:
.LBB850:
	.loc 6 218 0
	ldr	x0, [x0, 752]
.LBE850:
.LBE849:
.LBE848:
.LBE847:
.LBE846:
.LBE845:
	.loc 1 149 0
	cbz	x0, .L330
	.loc 1 150 0
	ldr	x19, [x0, 16]
	b	.L335
.L337:
	.loc 1 151 0
	bl	strcmp
	cbz	w0, .L336
	.loc 1 150 0 discriminator 2
	ldr	x19, [x19, 16]
.L335:
	.loc 1 151 0 discriminator 1
	add	x1, x19, 72
	mov	x0, x20
	.loc 1 150 0 discriminator 1
	cbnz	x19, .L337
	b	.L330
.L322:
	.loc 1 97 0
	ldr	w2, [x21, 16]
	ldr	w1, [x19, 52]
	cmp	w2, w1
	bne	.L320
	b	.L343
.L328:
	.loc 1 115 0
	ldr	w0, [x19, 48]
	ldr	w1, [x21, 16]
	cmp	w1, w0
	cset	w0, ne
	b	.L343
.L336:
	.loc 1 157 0
	ldr	w0, [x19, 52]
	ldr	w1, [x21, 16]
	cmp	w1, w0
	cset	w0, ne
.L343:
	.loc 1 164 0
	ldp	x19, x20, [sp, 16]
	ldr	x21, [sp, 32]
	ldp	x29, x30, [sp], 48
	.cfi_restore 30
	.cfi_restore 29
	.cfi_restore 21
	.cfi_restore 19
	.cfi_restore 20
	.cfi_def_cfa 31, 0
	ret
	.cfi_endproc
.LFE4056:
	.size	need_filter, .-need_filter
	.align	2
	.global	str2hexnum
	.type	str2hexnum, %function
str2hexnum:
.LFB4058:
	.loc 1 253 0
	.cfi_startproc
	.loc 1 256 0
	mov	x3, 0
	b	.L355
.L359:
	.loc 1 259 0
	sub	x2, x1, #48
	.loc 1 261 0
	sub	x4, x1, #97
	.loc 1 259 0
	cmp	x2, 9
	bls	.L356
	.loc 1 261 0
	cmp	x4, 5
	.loc 1 263 0
	sub	x5, x1, #65
	.loc 1 264 0
	sub	x2, x1, #55
	.loc 1 261 0
	bhi	.L357
	.loc 1 262 0
	sub	x2, x1, #87
	b	.L356
.L357:
	.loc 1 263 0
	cmp	x5, 5
	bhi	.L360
.L356:
	.loc 1 256 0 discriminator 2
	add	x3, x2, x3, lsl 4
	add	x0, x0, 1
.L355:
	.loc 1 256 0 is_stmt 0 discriminator 1
	ldrb	w2, [x0]
	.loc 1 258 0 is_stmt 1 discriminator 1
	uxtb	x1, w2
	.loc 1 256 0 discriminator 1
	cbnz	w2, .L359
	.loc 1 268 0
	mov	x0, x3
	b	.L358
.L360:
	.loc 1 266 0
	mov	x0, -1
.L358:
	.loc 1 270 0
	ret
	.cfi_endproc
.LFE4058:
	.size	str2hexnum, .-str2hexnum
	.align	2
	.global	filter_table_head_init
	.type	filter_table_head_init, %function
filter_table_head_init:
.LFB4064:
	.loc 1 569 0
	.cfi_startproc
	.loc 1 570 0
	adrp	x3, .LANCHOR0
	.loc 1 577 0
	mov	w4, 1
	.loc 1 570 0
	add	x1, x3, :lo12:.LANCHOR0
	.loc 1 580 0
	mov	w0, 0
.LBB851:
.LBB852:
	.file 10 "include/linux/list.h"
	.loc 10 27 0
	add	x2, x1, 16
.LBE852:
.LBE851:
.LBB854:
.LBB855:
	str	x1, [x3, #:lo12:.LANCHOR0]
.LBE855:
.LBE854:
	.loc 1 570 0
	stp	xzr, xzr, [x1, 32]
	str	xzr, [x1, 48]
.LBB857:
.LBB856:
	.loc 10 28 0
	str	x1, [x1, 8]
.LBE856:
.LBE857:
.LBB858:
.LBB853:
	.loc 10 27 0
	str	x2, [x1, 16]
	.loc 10 28 0
	str	x2, [x1, 24]
.LBE853:
.LBE858:
	.loc 1 577 0
	str	w4, [x1, 40]
	.loc 1 580 0
	ret
	.cfi_endproc
.LFE4064:
	.size	filter_table_head_init, .-filter_table_head_init
	.align	2
	.global	filter_table_regist
	.type	filter_table_regist, %function
filter_table_regist:
.LFB4065:
	.loc 1 583 0
	.cfi_startproc
	stp	x29, x30, [sp, -48]!
	.cfi_def_cfa_offset 48
	.cfi_offset 29, -48
	.cfi_offset 30, -40
	add	x29, sp, 0
	.cfi_def_cfa_register 29
	stp	x19, x20, [sp, 16]
	.cfi_offset 19, -32
	.cfi_offset 20, -24
	.loc 1 586 0
	adrp	x19, .LANCHOR0
	.loc 1 583 0
	str	x21, [sp, 32]
	.cfi_offset 21, -16
	.loc 1 583 0
	mov	w21, w0
	.loc 1 586 0
	add	x0, x19, :lo12:.LANCHOR0
	.loc 1 583 0
	mov	x20, x1
	.loc 1 586 0
	ldr	w0, [x0, 40]
	cbnz	w0, .L363
	.loc 1 588 0
	bl	filter_table_head_init
.L363:
.LBB859:
.LBB860:
	.loc 3 470 0
	adrp	x0, kmalloc_caches+56
.LBB861:
.LBB862:
	.loc 3 369 0
	mov	w1, 192
	movk	w1, 0x240, lsl 16
	ldr	x0, [x0, #:lo12:kmalloc_caches+56]
	bl	kmem_cache_alloc
	mov	x1, x0
.LBE862:
.LBE861:
.LBE860:
.LBE859:
	.loc 1 595 0
	mov	w3, 1
	.loc 1 598 0
	add	x4, x0, 16
.LBB863:
.LBB864:
	.loc 10 63 0
	add	x2, x19, :lo12:.LANCHOR0
.LBE864:
.LBE863:
	.loc 1 603 0
	mov	w0, 0
.LBB869:
.LBB870:
	.loc 10 27 0
	str	x1, [x1]
.LBE870:
.LBE869:
	.loc 1 595 0
	str	w3, [x1, 40]
.LBB871:
.LBB867:
	.loc 10 63 0
	ldr	x3, [x19, #:lo12:.LANCHOR0]
.LBE867:
.LBE871:
	.loc 1 593 0
	str	w21, [x1, 32]
	.loc 1 594 0
	str	wzr, [x1, 36]
.LBB872:
.LBB873:
	.loc 10 27 0
	str	x4, [x1, 16]
	.loc 10 28 0
	str	x4, [x1, 24]
.LBE873:
.LBE872:
	.loc 1 596 0
	str	x20, [x1, 48]
.LBB874:
.LBB868:
.LBB865:
.LBB866:
	.loc 10 42 0
	str	x1, [x3, 8]
	.loc 10 43 0
	str	x3, [x1]
	.loc 10 44 0
	str	x2, [x1, 8]
	.loc 10 45 0
	str	x1, [x19, #:lo12:.LANCHOR0]
.LBE866:
.LBE865:
.LBE868:
.LBE874:
	.loc 1 601 0
	ldr	w1, [x2, 40]
	add	w1, w1, 1
	str	w1, [x2, 40]
	.loc 1 603 0
	ldp	x19, x20, [sp, 16]
	ldr	x21, [sp, 32]
	ldp	x29, x30, [sp], 48
	.cfi_restore 30
	.cfi_restore 29
	.cfi_restore 21
	.cfi_restore 19
	.cfi_restore 20
	.cfi_def_cfa 31, 0
	ret
	.cfi_endproc
.LFE4065:
	.size	filter_table_regist, .-filter_table_regist
	.align	2
	.global	filter_table_flush
	.type	filter_table_flush, %function
filter_table_flush:
.LFB4066:
	.loc 1 606 0
	.cfi_startproc
	stp	x29, x30, [sp, -80]!
	.cfi_def_cfa_offset 80
	.cfi_offset 29, -80
	.cfi_offset 30, -72
.LBB875:
	.loc 1 614 0
	adrp	x0, .LANCHOR0
.LBE875:
	.loc 1 606 0
	add	x29, sp, 0
	.cfi_def_cfa_register 29
	stp	x19, x20, [sp, 16]
	.cfi_offset 19, -64
	.cfi_offset 20, -56
.LBB876:
	.loc 1 614 0
	ldr	x20, [x0, #:lo12:.LANCHOR0]
.LBE876:
	.loc 1 606 0
	stp	x23, x24, [sp, 48]
	stp	x21, x22, [sp, 32]
	str	x25, [sp, 64]
	.cfi_offset 23, -32
	.cfi_offset 24, -24
	.cfi_offset 21, -48
	.cfi_offset 22, -40
	.cfi_offset 25, -16
.LBB877:
.LBB878:
	.loc 10 108 0
	mov	x23, 256
	.loc 10 109 0
	mov	x22, 512
	.loc 10 108 0
	movk	x23, 0xdead, lsl 48
.LBE878:
.LBE877:
	.loc 1 614 0
	add	x24, x0, :lo12:.LANCHOR0
.LBB886:
.LBB884:
	.loc 10 109 0
	movk	x22, 0xdead, lsl 48
.LBE884:
.LBE886:
.LBB887:
	.loc 1 614 0
	ldr	x25, [x20]
.LBE887:
	b	.L365
.L369:
.LBB888:
	.loc 1 616 0
	mov	x21, x20
	ldr	x1, [x21, 16]!
.LBE888:
.LBB889:
	ldr	x19, [x1]
.LBE889:
	b	.L366
.L367:
.LBB890:
.LBB885:
	.loc 10 107 0 discriminator 3
	ldr	x3, [x1]
	ldr	x2, [x1, 8]
.LBB879:
.LBB880:
	.loc 10 89 0 discriminator 3
	str	x2, [x3, 8]
.LBB881:
.LBB882:
.LBB883:
	.loc 6 247 0 discriminator 3
	str	x3, [x2]
.LBE883:
.LBE882:
.LBE881:
.LBE880:
.LBE879:
	.loc 10 108 0 discriminator 3
	str	x23, [x1]
	.loc 10 109 0 discriminator 3
	str	x22, [x1, 8]
.LBE885:
.LBE890:
	.loc 1 619 0 discriminator 3
	bl	kfree
	.loc 1 620 0 discriminator 3
	ldr	w0, [x20, 40]
	.loc 1 616 0 discriminator 3
	mov	x1, x19
	.loc 1 620 0 discriminator 3
	sub	w0, w0, #1
	str	w0, [x20, 40]
	.loc 1 616 0 discriminator 3
	ldr	x19, [x19]
.L366:
	.loc 1 616 0 is_stmt 0 discriminator 1
	cmp	x1, x21
	.loc 1 619 0 is_stmt 1 discriminator 1
	mov	x0, x1
	.loc 1 616 0 discriminator 1
	bne	.L367
	.loc 1 623 0
	ldr	w0, [x20, 32]
	cmp	w0, 3
	bne	.L368
	.loc 1 623 0 is_stmt 0 discriminator 1
	ldr	w0, [x20, 40]
	cmp	w0, 1
	bne	.L368
.LBB891:
	.loc 1 626 0 is_stmt 1
	bl	Del_Pattern_ACL_For_ContentFilter
.L368:
.LBE891:
.LBB892:
.LBB893:
	.loc 10 107 0 discriminator 2
	ldr	x2, [x20]
.LBE893:
.LBE892:
	.loc 1 629 0 discriminator 2
	mov	x0, x20
.LBB900:
.LBB899:
	.loc 10 107 0 discriminator 2
	ldr	x1, [x20, 8]
.LBB894:
.LBB895:
	.loc 10 89 0 discriminator 2
	str	x1, [x2, 8]
.LBB896:
.LBB897:
.LBB898:
	.loc 6 247 0 discriminator 2
	str	x2, [x1]
.LBE898:
.LBE897:
.LBE896:
.LBE895:
.LBE894:
	.loc 10 108 0 discriminator 2
	str	x23, [x20]
	.loc 10 109 0 discriminator 2
	str	x22, [x20, 8]
.LBE899:
.LBE900:
	.loc 1 614 0 discriminator 2
	mov	x20, x25
	.loc 1 629 0 discriminator 2
	bl	kfree
	.loc 1 630 0 discriminator 2
	ldr	w0, [x24, 40]
	sub	w0, w0, #1
	str	w0, [x24, 40]
	.loc 1 614 0 discriminator 2
	ldr	x25, [x25]
.L365:
	.loc 1 614 0 is_stmt 0 discriminator 1
	cmp	x20, x24
	bne	.L369
	.loc 1 633 0 is_stmt 1
	adrp	x1, .LANCHOR1
	.loc 1 635 0
	str	wzr, [x20, 56]
	.loc 1 633 0
	add	x1, x1, :lo12:.LANCHOR1
	mov	w2, 1
	.loc 1 637 0
	mov	w0, 0
	.loc 1 633 0
	str	w2, [x1, 3304]
	.loc 1 634 0
	str	wzr, [x1, 3308]
	.loc 1 637 0
	ldp	x19, x20, [sp, 16]
	ldp	x21, x22, [sp, 32]
	ldp	x23, x24, [sp, 48]
	ldr	x25, [sp, 64]
	ldp	x29, x30, [sp], 80
	.cfi_restore 30
	.cfi_restore 29
	.cfi_restore 25
	.cfi_restore 23
	.cfi_restore 24
	.cfi_restore 21
	.cfi_restore 22
	.cfi_restore 19
	.cfi_restore 20
	.cfi_def_cfa 31, 0
	ret
	.cfi_endproc
.LFE4066:
	.size	filter_table_flush, .-filter_table_flush
	.align	2
	.global	filter_item_regist
	.type	filter_item_regist, %function
filter_item_regist:
.LFB4067:
	.loc 1 641 0
	.cfi_startproc
	.loc 1 645 0
	adrp	x2, .LANCHOR0
	.loc 1 641 0
	stp	x29, x30, [sp, -16]!
	.cfi_def_cfa_offset 16
	.cfi_offset 29, -16
	.cfi_offset 30, -8
	.loc 1 645 0
	add	x4, x2, :lo12:.LANCHOR0
	.loc 1 641 0
	add	x29, sp, 0
	.cfi_def_cfa_register 29
	.loc 1 645 0
	ldr	x2, [x2, #:lo12:.LANCHOR0]
	b	.L371
.L374:
	.loc 1 648 0
	ldr	w3, [x2, 32]
	cmp	w3, w0
	bne	.L372
.LBB901:
.LBB902:
	.loc 10 63 0
	mov	x3, x2
.LBE902:
.LBE901:
	.loc 1 652 0
	cmp	w0, 3
.LBB906:
.LBB905:
	.loc 10 63 0
	ldr	x0, [x3, 16]!
.LBB903:
.LBB904:
	.loc 10 42 0
	str	x1, [x0, 8]
	.loc 10 43 0
	str	x0, [x1]
	.loc 10 44 0
	str	x3, [x1, 8]
	.loc 10 45 0
	str	x1, [x2, 16]
.LBE904:
.LBE903:
.LBE905:
.LBE906:
	.loc 1 651 0
	ldr	w0, [x2, 40]
	add	w0, w0, 1
	str	w0, [x2, 40]
	.loc 1 652 0
	bne	.L375
	cmp	w0, 2
	bne	.L375
.LBB907:
	.loc 1 655 0
	bl	Add_Pattern_ACL_For_ContentFilter
.LBE907:
	.loc 1 657 0
	mov	w0, 0
	b	.L373
.L372:
	.loc 1 645 0 discriminator 2
	ldr	x2, [x2]
.L371:
	.loc 1 645 0 is_stmt 0 discriminator 1
	cmp	x2, x4
	bne	.L374
	.loc 1 661 0 is_stmt 1
	mov	w0, -1
	b	.L373
.L375:
	.loc 1 657 0
	mov	w0, 0
.L373:
	.loc 1 662 0
	ldp	x29, x30, [sp], 16
	.cfi_restore 30
	.cfi_restore 29
	.cfi_def_cfa 31, 0
	ret
	.cfi_endproc
.LFE4067:
	.size	filter_item_regist, .-filter_item_regist
	.align	2
	.global	check_esc_end
	.type	check_esc_end, %function
check_esc_end:
.LFB4068:
	.loc 1 668 0
	.cfi_startproc
	stp	x29, x30, [sp, -32]!
	.cfi_def_cfa_offset 32
	.cfi_offset 29, -32
	.cfi_offset 30, -24
	add	x29, sp, 0
	.cfi_def_cfa_register 29
	stp	x19, x20, [sp, 16]
	.cfi_offset 19, -16
	.cfi_offset 20, -8
	.loc 1 668 0
	uxtb	w19, w1
	mov	x20, x0
	.loc 1 669 0
	bl	strlen
	.loc 1 671 0
	sub	w0, w0, #1
	.loc 1 669 0
	mov	w1, 0
	.loc 1 671 0
	b	.L383
.L385:
	.loc 1 673 0
	ldrb	w2, [x20, w0, sxtw]
	.loc 1 671 0
	sub	w0, w0, #1
	.loc 1 673 0
	cmp	w2, w19
	bne	.L386
	.loc 1 674 0 discriminator 2
	add	w1, w1, 1
.L383:
	.loc 1 671 0 discriminator 1
	tbz	w0, #31, .L385
.L386:
	.loc 1 679 0
	lsr	w0, w1, 31
	add	w1, w1, w0
	and	w1, w1, 1
	sub	w0, w1, w0
	.loc 1 680 0
	ldp	x19, x20, [sp, 16]
	ldp	x29, x30, [sp], 32
	.cfi_restore 30
	.cfi_restore 29
	.cfi_restore 19
	.cfi_restore 20
	.cfi_def_cfa 31, 0
	ret
	.cfi_endproc
.LFE4068:
	.size	check_esc_end, .-check_esc_end
	.align	2
	.type	filter_table_single_write, %function
filter_table_single_write:
.LFB4072:
	.loc 1 1174 0
	.cfi_startproc
	stp	x29, x30, [sp, -128]!
	.cfi_def_cfa_offset 128
	.cfi_offset 29, -128
	.cfi_offset 30, -120
	add	x29, sp, 0
	.cfi_def_cfa_register 29
	stp	x27, x28, [sp, 80]
	.cfi_offset 27, -48
	.cfi_offset 28, -40
.LBB927:
.LBB928:
.LBB929:
.LBB930:
	.loc 3 470 0
	adrp	x28, kmalloc_caches
	add	x0, x28, :lo12:kmalloc_caches
.LBE930:
.LBE929:
.LBE928:
.LBE927:
	.loc 1 1174 0
	stp	x21, x22, [sp, 32]
	stp	x19, x20, [sp, 16]
	stp	x23, x24, [sp, 48]
	stp	x25, x26, [sp, 64]
	.cfi_offset 21, -96
	.cfi_offset 22, -88
	.cfi_offset 19, -112
	.cfi_offset 20, -104
	.cfi_offset 23, -80
	.cfi_offset 24, -72
	.cfi_offset 25, -64
	.cfi_offset 26, -56
	.loc 1 1174 0
	mov	x21, x1
.LBB954:
.LBB952:
.LBB937:
.LBB935:
.LBB931:
.LBB932:
	.loc 3 369 0
	mov	w1, 192
	ldr	x0, [x0, 80]
	movk	w1, 0x240, lsl 16
.LBE932:
.LBE931:
.LBE935:
.LBE937:
.LBE952:
.LBE954:
	.loc 1 1174 0
	mov	x20, x2
.LBB955:
.LBB953:
.LBB938:
.LBB936:
.LBB934:
.LBB933:
	.loc 3 369 0
	bl	kmem_cache_alloc
	mov	x22, x0
.LBE933:
.LBE934:
.LBE936:
.LBE938:
	.loc 1 704 0
	cbz	x0, .L415
	.loc 1 706 0
	mov	w1, 0
	mov	x2, 1024
	.loc 1 709 0
	adrp	x26, .LANCHOR1
	add	x19, x26, :lo12:.LANCHOR1
	.loc 1 706 0
	bl	memset
	.loc 1 709 0
	add	x19, x19, 3312
	.loc 1 707 0
	str	x22, [x29, 120]
	.loc 1 709 0
	mov	x0, x19
	bl	strlen
	mov	x2, x0
	mov	w1, 0
	mov	x0, x19
	bl	memset
	.loc 1 710 0
	cbz	x21, .L390
.LBB939:
.LBB940:
.LBB941:
.LBB942:
.LBB943:
	.file 11 "./arch/arm64/include/asm/thread_info.h"
	.loc 11 83 0
#APP
// 83 "./arch/arm64/include/asm/thread_info.h" 1
	mrs x1, sp_el0
// 0 "" 2
#NO_APP
.LBE943:
.LBE942:
	.file 12 "./arch/arm64/include/asm/uaccess.h"
	.loc 12 291 0
	mov	x0, x21
	ldr	x1, [x1, 8]
#APP
// 291 "./arch/arm64/include/asm/uaccess.h" 1
	adds x0, x0, x20; ccmp x0, x1, #2, cc; cset x2, ls
// 0 "" 2
#NO_APP
.LBE941:
	cbz	x2, .L391
	.loc 12 293 0
	mov	x2, x20
	mov	x1, x21
	mov	x0, x19
	bl	__arch_copy_from_user
	b	.L392
.L391:
	.loc 12 295 0
	mov	x2, x20
	mov	w1, 0
	mov	x0, x19
	bl	memset
	mov	x0, x20
.L392:
.LBE940:
.LBE939:
	.loc 1 710 0
	cbnz	x0, .L390
	.loc 1 712 0
	add	x21, x26, :lo12:.LANCHOR1
	mov	x2, x20
	add	x19, x21, 3312
	mov	x0, x22
	mov	x1, x19
	bl	strncpy
	.loc 1 713 0
	mov	x0, x19
	bl	strlen
	add	x0, x22, x0
	.loc 1 715 0
	adrp	x1, .LC37
	mov	x2, 4
	add	x1, x1, :lo12:.LC37
	.loc 1 713 0
	strb	wzr, [x0, -1]
	.loc 1 715 0
	ldr	x19, [x29, 120]
	mov	x0, x19
	bl	memcmp
	cbnz	w0, .L393
	.loc 1 718 0
	adrp	x1, .LC38
	add	x21, x29, 120
	add	x1, x1, :lo12:.LC38
	mov	x0, x21
	.loc 1 722 0
	mov	x23, x1
	.loc 1 725 0
	adrp	x19, .LANCHOR2
	.loc 1 718 0
	bl	strsep
	.loc 1 725 0
	add	x19, x19, :lo12:.LANCHOR2
	ldr	x2, [x29, 120]
.L394:
	.loc 1 722 0
	mov	x1, x23
	mov	x0, x21
	.loc 1 721 0
	cbz	x2, .L390
	.loc 1 722 0
	bl	strsep
	.loc 1 723 0
	bl	str2hexnum
	mov	x1, x0
	.loc 1 725 0
	add	x1, x19, x1, sxtw 4
	ldr	x1, [x1, 8]
	bl	filter_table_regist
	.loc 1 726 0
	ldr	x2, [x29, 120]
	cbnz	x2, .L394
	b	.L395
.L393:
	.loc 1 728 0
	adrp	x1, .LC39
	mov	x2, 5
	add	x1, x1, :lo12:.LC39
	mov	x0, x19
	bl	memcmp
	cbnz	w0, .L396
	.loc 1 731 0
	bl	filter_table_flush
	b	.L395
.L396:
	.loc 1 733 0
	adrp	x1, .LC40
	mov	x2, 10
	add	x1, x1, :lo12:.LC40
	mov	x0, x19
	bl	memcmp
	cbnz	w0, .L397
	.loc 1 735 0
	mov	w0, 1
	str	w0, [x21, 3308]
	b	.L395
.L397:
	.loc 1 737 0
	adrp	x1, .LC41
	mov	x2, 5
	add	x1, x1, :lo12:.LC41
	mov	x0, x19
	bl	memcmp
	cbnz	w0, .L398
	.loc 1 739 0
	adrp	x0, .LANCHOR0+56
	mov	w1, 1
	str	w1, [x0, #:lo12:.LANCHOR0+56]
	b	.L395
.L398:
	.loc 1 741 0
	adrp	x1, .LC42
	mov	x2, 5
	add	x1, x1, :lo12:.LC42
	mov	x0, x19
	bl	memcmp
	cbnz	w0, .L399
	.loc 1 743 0
	adrp	x0, .LANCHOR0+56
	str	wzr, [x0, #:lo12:.LANCHOR0+56]
	b	.L395
.L399:
	.loc 1 755 0
	adrp	x1, .LC43
	mov	x2, 4
	add	x1, x1, :lo12:.LC43
	mov	x0, x19
	bl	memcmp
	cbnz	w0, .L395
	.loc 1 759 0
	add	x0, x19, 4
	str	x0, [x29, 120]
	.loc 1 760 0
	ldrb	w0, [x19, 4]
	cbz	w0, .L390
	.loc 1 763 0
	adrp	x1, .LC44
	add	x21, x29, 120
	add	x1, x1, :lo12:.LC44
	mov	x0, x21
	bl	strsep
	.loc 1 764 0
	ldr	x1, [x29, 120]
	cbz	x1, .L390
	.loc 1 765 0
	bl	str2hexnum
	cmn	w0, #1
	beq	.L390
	.loc 1 769 0
	adrp	x1, .LC38
	mov	x0, x21
	add	x23, x1, :lo12:.LC38
	mov	x1, x23
	bl	strsep
	.loc 1 770 0
	ldr	x1, [x29, 120]
	cbz	x1, .L390
	.loc 1 771 0
	bl	str2hexnum
	cmn	w0, #1
	beq	.L390
	.loc 1 776 0
	mov	x1, x23
	mov	x0, x21
	bl	strsep
	.loc 1 777 0
	ldr	x1, [x29, 120]
	cbz	x1, .L390
	.loc 1 778 0
	bl	str2hexnum
	str	x0, [x29, 96]
	cmn	w0, #1
	beq	.L390
	adrp	x25, .LC45
	.loc 1 786 0
	mov	w27, 59
	.loc 1 783 0
	add	x25, x25, :lo12:.LC45
.L414:
	mov	x1, x25
	mov	x0, x21
	bl	strsep
	mov	x19, x0
	str	x0, [x29, 112]
	b	.L401
.L404:
	.loc 1 786 0
	mov	x0, x19
	bl	strlen
	strb	w27, [x19, x0]
	.loc 1 787 0
	mov	x1, x25
	mov	x0, x21
	bl	strsep
	.loc 1 788 0
	ldr	x0, [x29, 120]
	cbnz	x0, .L402
.L405:
	.loc 1 794 0
	mov	x1, x23
	add	x0, x29, 112
	bl	strsep
	mov	x19, x0
	.loc 1 795 0
	ldr	x0, [x29, 112]
	cbz	x0, .L390
	.loc 1 799 0
	mov	w24, 32
	b	.L403
.L402:
	ldr	x19, [x29, 112]
.L401:
	.loc 1 784 0
	mov	w1, 92
	mov	x0, x19
	bl	check_esc_end
	cbnz	w0, .L404
	b	.L405
.L406:
	.loc 1 799 0
	mov	x0, x19
	bl	strlen
	strb	w24, [x19, x0]
	.loc 1 801 0
	mov	x1, x23
	add	x0, x29, 112
	bl	strsep
.L403:
	.loc 1 796 0
	mov	w1, 92
	mov	x0, x19
	bl	check_esc_end
	cbnz	w0, .L406
	mov	w3, 0
	b	.L407
.L411:
	.loc 1 809 0
	cmp	w0, 92
	bne	.L408
	mov	w0, w3
	b	.L409
.L410:
	.loc 1 812 0
	strb	w2, [x19, x1]
.L409:
	.loc 1 811 0
	sxtw	x1, w0
	add	w0, w0, 1
	add	x2, x19, x1
	ldrb	w2, [x2, 1]
	cbnz	w2, .L410
	.loc 1 813 0
	strb	wzr, [x19, x1]
.L408:
	.loc 1 807 0
	add	w3, w3, 1
.L407:
	ldrb	w0, [x19, w3, sxtw]
	cbnz	w0, .L411
.LBB944:
.LBB945:
	.loc 3 470 0
	add	x0, x28, :lo12:kmalloc_caches
.LBB946:
.LBB947:
	.loc 3 369 0
	mov	w1, 192
	movk	w1, 0x240, lsl 16
	ldr	x0, [x0, 56]
	bl	kmem_cache_alloc
	mov	x24, x0
.LBE947:
.LBE946:
.LBE945:
.LBE944:
	.loc 1 831 0
	cbz	x0, .L395
.LBB948:
.LBB949:
	.loc 10 27 0
	str	x0, [x24]
	.loc 10 28 0
	str	x0, [x24, 8]
.LBE949:
.LBE948:
	.loc 1 839 0
	str	wzr, [x0, 40]
	.loc 1 856 0
	ldr	w0, [x29, 96]
	str	w0, [x24, 32]
	.loc 1 840 0
	add	x0, x26, :lo12:.LANCHOR1
	ldr	w0, [x0, 3304]
	str	w0, [x24, 36]
	.loc 1 838 0
	add	x0, x24, 16
.LBB950:
.LBB951:
	.loc 10 27 0
	str	x0, [x24, 16]
	.loc 10 28 0
	str	x0, [x24, 24]
.LBE951:
.LBE950:
	.loc 1 858 0
	mov	x0, x19
	bl	strlen
	cmp	x0, 40
	bls	.L443
	mov	x0, 39
.L443:
	.loc 1 859 0
	mov	x2, x0
	.loc 1 858 0
	str	w0, [x29, 108]
	.loc 1 859 0
	mov	x1, x19
	add	x0, x24, 44
	bl	strncpy
	.loc 1 860 0
	ldr	w0, [x29, 108]
	.loc 1 862 0
	mov	x1, x24
	.loc 1 860 0
	add	x0, x24, x0, sxtw
	strb	wzr, [x0, 44]
	.loc 1 862 0
	mov	w0, 3
	bl	filter_item_regist
	.loc 1 863 0
	add	x1, x26, :lo12:.LANCHOR1
	.loc 1 864 0
	ldr	x2, [x29, 120]
	.loc 1 863 0
	ldr	w0, [x1, 3304]
	add	w0, w0, 1
	str	w0, [x1, 3304]
	.loc 1 864 0
	cbz	x2, .L395
	ldrb	w0, [x2]
	cbnz	w0, .L414
.L395:
	.loc 1 1037 0
	mov	x0, x22
	bl	kfree
	sxtw	x0, w20
	b	.L389
.L390:
	.loc 1 1041 0
	mov	x0, x22
	bl	kfree
	mov	x0, -14
	b	.L389
.L415:
	.loc 1 704 0
	mov	x0, -14
.L389:
.LBE953:
.LBE955:
	.loc 1 1176 0
	ldp	x19, x20, [sp, 16]
	ldp	x21, x22, [sp, 32]
	ldp	x23, x24, [sp, 48]
	ldp	x25, x26, [sp, 64]
	ldp	x27, x28, [sp, 80]
	ldp	x29, x30, [sp], 128
	.cfi_restore 30
	.cfi_restore 29
	.cfi_restore 27
	.cfi_restore 28
	.cfi_restore 25
	.cfi_restore 26
	.cfi_restore 23
	.cfi_restore 24
	.cfi_restore 21
	.cfi_restore 22
	.cfi_restore 19
	.cfi_restore 20
	.cfi_def_cfa 31, 0
	ret
	.cfi_endproc
.LFE4072:
	.size	filter_table_single_write, .-filter_table_single_write
	.align	2
	.global	scan_table
	.type	scan_table, %function
scan_table:
.LFB4073:
	.loc 1 1330 0
	.cfi_startproc
	stp	x29, x30, [sp, -80]!
	.cfi_def_cfa_offset 80
	.cfi_offset 29, -80
	.cfi_offset 30, -72
	add	x29, sp, 0
	.cfi_def_cfa_register 29
	stp	x23, x24, [sp, 48]
	.cfi_offset 23, -32
	.cfi_offset 24, -24
	.loc 1 1336 0
	adrp	x24, .LANCHOR1
	.loc 1 1330 0
	str	x25, [sp, 64]
	.loc 1 1336 0
	add	x4, x24, :lo12:.LANCHOR1
	.loc 1 1330 0
	stp	x19, x20, [sp, 16]
	stp	x21, x22, [sp, 32]
	.cfi_offset 25, -16
	.cfi_offset 19, -64
	.cfi_offset 20, -56
	.cfi_offset 21, -48
	.cfi_offset 22, -40
	.loc 1 1336 0
	str	wzr, [x4, 3264]
	.loc 1 1338 0
	cbz	x2, .L495
	.loc 1 1338 0 is_stmt 0 discriminator 2
	ldr	x4, [x2, 48]
	cbz	x4, .L495
	.loc 1 1339 0 is_stmt 1
	ldr	w4, [x2, 40]
	cmp	w4, 1
	bhi	.L448
.L450:
	.loc 1 1431 0
	adrp	x0, .LANCHOR0+56
	ldr	w0, [x0, #:lo12:.LANCHOR0+56]
	cbnz	w0, .L449
.L495:
	.loc 1 1434 0
	mov	w0, -1
	b	.L472
.L448:
.LBB956:
.LBB957:
	.loc 10 189 0 discriminator 1
	ldr	x19, [x2, 16]
.LBE957:
.LBE956:
	.loc 1 1339 0 discriminator 1
	add	x25, x2, 16
	mov	x23, x3
	mov	w21, w1
	cmp	x25, x19
	mov	x22, x0
	mov	x20, x2
	bne	.L457
	b	.L450
.L461:
	mov	x19, x2
.L457:
	.loc 1 1343 0
	ldr	w4, [x19, 32]
	tbnz	x4, 0, .L451
	.loc 1 1343 0 is_stmt 0 discriminator 1
	ldr	w0, [x19, 36]
	cmp	w21, w0
	bne	.L452
.L451:
	.loc 1 1345 0 is_stmt 1
	tbz	x4, 9, .L453
.LBB958:
	.loc 1 1348 0
	ldr	x3, [x23]
.LBE958:
	.loc 1 1349 0
	tbz	x4, 1, .L452
	.loc 1 1351 0
	cbz	x3, .L495
	.loc 1 1355 0
	ldr	w1, [x19, 36]
	mov	x2, x3
	mov	x0, x22
	bl	scan_table
	.loc 1 1359 0
	cbz	w0, .L452
.L449:
	.loc 1 1362 0
	mov	w0, 1
	b	.L472
.L453:
	.loc 1 1365 0
	tbnz	x4, 8, .L454
	.loc 1 1365 0 is_stmt 0 discriminator 1
	ldr	x2, [x20, 48]
	add	x1, x19, 44
	mov	x0, x22
	blr	x2
	cbz	w0, .L452
	ldr	w4, [x19, 32]
	b	.L454
.L497:
	.loc 1 1369 0 is_stmt 1
	tbz	x4, 0, .L449
	.loc 1 1372 0
	eor	x0, x4, 8
	ubfx	x0, x0, 3, 1
	b	.L472
.L493:
	.loc 1 1391 0
	ldr	w1, [x19, 36]
	mov	x2, x3
	mov	x0, x22
	bl	scan_table
	.loc 1 1394 0
	cbz	w0, .L452
	.loc 1 1396 0
	ldr	w0, [x19, 32]
	tbz	x0, 0, .L455
	.loc 1 1398 0
	adrp	x1, .LANCHOR0+56
	ldr	w1, [x1, #:lo12:.LANCHOR0+56]
	cbnz	w1, .L496
	.loc 1 1402 0
	eor	x0, x0, 8
.L496:
	ubfx	x0, x0, 3, 1
	b	.L472
.L455:
	.loc 1 1407 0
	adrp	x0, .LANCHOR0+56
	ldr	w0, [x0, #:lo12:.LANCHOR0+56]
	cmp	w0, wzr
	cset	w0, eq
	b	.L472
.L452:
	.loc 1 1340 0
	ldr	x2, [x19]
	cmp	x25, x2
	bne	.L461
	.loc 1 1419 0
	cbz	x19, .L450
	.loc 1 1438 0
	add	x24, x24, :lo12:.LANCHOR1
	ldr	w0, [x24, 3264]
	cbnz	w0, .L449
	.loc 1 1441 0
	ldr	w1, [x19, 32]
	tbz	x1, 0, .L472
	.loc 1 1444 0
	ubfx	x0, x1, 3, 1
	b	.L472
.L494:
.LBB959:
	.loc 1 1383 0
	ldr	x3, [x23]
.LBE959:
	.loc 1 1386 0
	cbnz	x3, .L493
	b	.L495
.L454:
	.loc 1 1367 0
	tbnz	x4, 1, .L494
	b	.L497
.L472:
	.loc 1 1451 0
	ldp	x19, x20, [sp, 16]
	ldp	x21, x22, [sp, 32]
	ldp	x23, x24, [sp, 48]
	ldr	x25, [sp, 64]
	ldp	x29, x30, [sp], 80
	.cfi_restore 30
	.cfi_restore 29
	.cfi_restore 25
	.cfi_restore 23
	.cfi_restore 24
	.cfi_restore 21
	.cfi_restore 22
	.cfi_restore 19
	.cfi_restore 20
	.cfi_def_cfa 31, 0
	ret
	.cfi_endproc
.LFE4073:
	.size	scan_table, .-scan_table
	.align	2
	.global	log_fastFilter
	.type	log_fastFilter, %function
log_fastFilter:
.LFB4074:
	.loc 1 1464 0
	.cfi_startproc
	sub	sp, sp, #208
	.cfi_def_cfa_offset 208
	stp	x29, x30, [sp, 112]
	.cfi_offset 29, -96
	.cfi_offset 30, -88
	add	x29, sp, 112
	.cfi_def_cfa 29, 96
	stp	x19, x20, [sp, 128]
	.cfi_offset 19, -80
	.cfi_offset 20, -72
	mov	w19, w0
	.loc 1 1470 0
	add	x0, x29, 80
	.loc 1 1464 0
	mov	x20, x1
	stp	x21, x22, [sp, 144]
	stp	x23, x24, [sp, 160]
	stp	x25, x26, [sp, 176]
	.cfi_offset 21, -64
	.cfi_offset 22, -56
	.cfi_offset 23, -48
	.cfi_offset 24, -40
	.cfi_offset 25, -32
	.cfi_offset 26, -24
	.loc 1 1470 0
	bl	do_gettimeofday
	.loc 1 1476 0
	mov	x0, x20
	bl	rtl_ip_hdr
	mov	x21, x0
	.loc 1 1477 0
	mov	x0, x20
	bl	rtl_eth_hdr
	.loc 1 1478 0
	sub	w1, w19, #1
	cmp	w1, 3
	bhi	.L499
	adrp	x2, .L501
	add	x2, x2, :lo12:.L501
	ldrb	w1, [x2,w1,uxtw]
	adr	x2, .Lrtx501
	add	x1, x2, w1, sxtb #2
	br	x1
.Lrtx501:
	.section	.rodata
	.align	0
	.align	2
.L501:
	.byte	(.L500 - .Lrtx501) / 4
	.byte	(.L502 - .Lrtx501) / 4
	.byte	(.L503 - .Lrtx501) / 4
	.byte	(.L504 - .Lrtx501) / 4
	.text
.L500:
	.loc 1 1482 0
	cbz	x21, .L505
	.loc 1 1486 0
	ldr	w1, [x21, 12]
	adrp	x0, .LC46
	.loc 1 1490 0
	ldr	w5, [x21, 16]
	.loc 1 1486 0
	add	x0, x0, :lo12:.LC46
	ubfx	x3, x1, 8, 8
	and	w2, w5, 255
	ubfx	x7, x5, 8, 8
	ubfx	x6, x5, 16, 8
	uxtb	w4, w1
	str	w2, [sp]
	lsr	w5, w5, 24
	ubfx	x2, x1, 16, 8
	lsr	w1, w1, 24
	bl	printk
	.loc 1 1494 0
	b	.L505
.L502:
	.loc 1 1498 0
	cbz	x21, .L505
	cbz	x0, .L505
	.loc 1 1504 0
	mov	x0, x20
	.loc 1 1503 0
	ldr	w19, [x21, 12]
	.loc 1 1504 0
	bl	rtl_eth_hdr
	mov	x26, x0
	mov	x0, x20
	bl	rtl_eth_hdr
	mov	x22, x0
	mov	x0, x20
	bl	rtl_eth_hdr
	mov	x23, x0
	.loc 1 1505 0
	mov	x0, x20
	bl	rtl_eth_hdr
	mov	x24, x0
	mov	x0, x20
	bl	rtl_eth_hdr
	mov	x25, x0
	mov	x0, x20
	bl	rtl_eth_hdr
	.loc 1 1502 0
	ldrb	w3, [x26, 93]
	ldrb	w4, [x26, 92]
	.loc 1 1506 0
	ldr	w1, [x21, 16]
	.loc 1 1502 0
	orr	x4, x4, x3, lsl 8
	ldrb	w3, [x26, 94]
	and	w2, w1, 255
	ldrb	w6, [x26, 97]
	ldr	x5, [x26, 84]
	orr	x4, x4, x3, lsl 16
	ldrb	w3, [x26, 95]
	orr	x4, x4, x3, lsl 24
	ldrb	w3, [x26, 96]
	str	w2, [sp, 104]
	ubfx	x2, x1, 8, 8
	str	w2, [sp, 96]
	ubfx	x2, x1, 16, 8
	lsr	w1, w1, 24
	str	w2, [sp, 88]
	str	w1, [sp, 80]
	orr	x3, x4, x3, lsl 32
	orr	x6, x3, x6, lsl 40
	uxtb	w4, w19
	ldr	x1, [x0, 154]
	ubfx	x3, x19, 8, 8
	str	x1, [sp, 64]
	ubfx	x2, x19, 16, 8
	lsr	w1, w19, 24
	ldr	x0, [x0, 160]
	str	x0, [sp, 70]
	ldr	x0, [x25, 140]
	str	x0, [sp, 48]
	ldr	x0, [x25, 146]
	str	x0, [sp, 54]
	ldr	x0, [x24, 126]
	str	x0, [sp, 32]
	ldr	x0, [x24, 132]
	str	x0, [sp, 38]
	ldr	x0, [x23, 112]
	str	x0, [sp, 16]
	ldr	x0, [x23, 118]
	str	x0, [sp, 22]
	ldr	x0, [x22, 98]
	str	x0, [sp]
	ldr	x0, [x22, 104]
	str	x0, [sp, 6]
	adrp	x0, .LC47
	add	x0, x0, :lo12:.LC47
	bl	printk
	.loc 1 1510 0
	b	.L505
.L503:
	.loc 1 1514 0
	cbz	x21, .L505
	.loc 1 1518 0
	ldr	w1, [x21, 12]
	adrp	x2, .LANCHOR1
	.loc 1 1522 0
	ldr	w5, [x21, 16]
	.loc 1 1518 0
	add	x2, x2, :lo12:.LANCHOR1
	add	x2, x2, 3272
	adrp	x0, .LC48
	and	w3, w5, 255
	ubfx	x7, x5, 8, 8
	ubfx	x6, x5, 16, 8
	uxtb	w4, w1
	str	w3, [sp]
	lsr	w5, w5, 24
	ubfx	x3, x1, 8, 8
	str	x2, [sp, 8]
	add	x0, x0, :lo12:.LC48
	ubfx	x2, x1, 16, 8
	lsr	w1, w1, 24
	bl	printk
	.loc 1 1527 0
	b	.L505
.L504:
	.loc 1 1531 0
	cbz	x21, .L505
	.loc 1 1535 0
	ldr	w1, [x21, 12]
	adrp	x0, .LC49
	.loc 1 1539 0
	ldr	w5, [x21, 16]
	.loc 1 1535 0
	add	x0, x0, :lo12:.LC49
	ubfx	x3, x1, 8, 8
	and	w2, w5, 255
	ubfx	x7, x5, 8, 8
	ubfx	x6, x5, 16, 8
	uxtb	w4, w1
	str	w2, [sp]
	lsr	w5, w5, 24
	ubfx	x2, x1, 16, 8
	lsr	w1, w1, 24
	bl	printk
	.loc 1 1543 0
	b	.L505
.L499:
	.loc 1 1546 0
	adrp	x0, .LC50
	add	x0, x0, :lo12:.LC50
	bl	printk
.L505:
	.loc 1 1550 0
	add	sp, x29, 0
	mov	w0, 0
	ldp	x19, x20, [sp, 16]
	ldp	x21, x22, [sp, 32]
	ldp	x23, x24, [sp, 48]
	ldp	x25, x26, [sp, 64]
	ldp	x29, x30, [sp], 96
	.cfi_restore 30
	.cfi_restore 29
	.cfi_restore 25
	.cfi_restore 26
	.cfi_restore 23
	.cfi_restore 24
	.cfi_restore 21
	.cfi_restore 22
	.cfi_restore 19
	.cfi_restore 20
	.cfi_def_cfa 31, 0
	ret
	.cfi_endproc
.LFE4074:
	.size	log_fastFilter, .-log_fastFilter
	.align	2
	.global	do_filter
	.type	do_filter, %function
do_filter:
.LFB4075:
	.loc 1 1552 0
	.cfi_startproc
	stp	x29, x30, [sp, -48]!
	.cfi_def_cfa_offset 48
	.cfi_offset 29, -48
	.cfi_offset 30, -40
	.loc 1 1558 0
	adrp	x1, .LANCHOR0
	.loc 1 1552 0
	add	x29, sp, 0
	.cfi_def_cfa_register 29
	stp	x19, x20, [sp, 16]
	str	x21, [sp, 32]
	.cfi_offset 19, -32
	.cfi_offset 20, -24
	.cfi_offset 21, -16
	.loc 1 1558 0
	add	x20, x1, :lo12:.LANCHOR0
	.loc 1 1552 0
	mov	x21, x0
	.loc 1 1558 0
	ldr	x19, [x1, #:lo12:.LANCHOR0]
	b	.L516
.L520:
	.loc 1 1561 0
	bl	scan_table
	.loc 1 1562 0
	cmn	w0, #1
	bne	.L517
.L521:
	.loc 1 1564 0
	mov	w20, 0
	b	.L518
.L517:
	.loc 1 1566 0
	cmp	w0, 1
	bne	.L519
	.loc 1 1568 0
	adrp	x1, .LANCHOR1+3308
	.loc 1 1570 0
	mov	w20, w0
	.loc 1 1568 0
	ldr	w0, [x1, #:lo12:.LANCHOR1+3308]
	cbz	w0, .L518
	.loc 1 1569 0
	ldr	w0, [x19, 32]
	mov	x1, x21
	bl	log_fastFilter
	b	.L518
.L519:
	.loc 1 1558 0 discriminator 2
	ldr	x19, [x19]
.L516:
	.loc 1 1558 0 is_stmt 0 discriminator 1
	cmp	x19, x20
	.loc 1 1561 0 is_stmt 1 discriminator 1
	mov	x3, x19
	mov	x2, x19
	mov	w1, 0
	mov	x0, x21
	.loc 1 1558 0 discriminator 1
	bne	.L520
	b	.L521
.L518:
	.loc 1 1574 0
	mov	w0, w20
	ldr	x21, [sp, 32]
	ldp	x19, x20, [sp, 16]
	ldp	x29, x30, [sp], 48
	.cfi_restore 30
	.cfi_restore 29
	.cfi_restore 21
	.cfi_restore 19
	.cfi_restore 20
	.cfi_def_cfa 31, 0
	ret
	.cfi_endproc
.LFE4075:
	.size	do_filter, .-do_filter
	.align	2
	.global	FilterWeb_v2
	.type	FilterWeb_v2, %function
FilterWeb_v2:
.LFB4076:
	.loc 1 1579 0
	.cfi_startproc
	stp	x29, x30, [sp, -32]!
	.cfi_def_cfa_offset 32
	.cfi_offset 29, -32
	.cfi_offset 30, -24
	add	x29, sp, 0
	.cfi_def_cfa_register 29
	str	x19, [sp, 16]
	.cfi_offset 19, -16
	.loc 1 1579 0
	mov	x19, x0
	.loc 1 1583 0
	bl	rtl_ip_hdr
	.loc 1 1585 0
	mov	x0, x19
	bl	need_filter
	cbz	w0, .L525
	.loc 1 1587 0
	mov	x0, x19
	bl	do_filter
.L525:
	.loc 1 1591 0
	ldr	x19, [sp, 16]
	ldp	x29, x30, [sp], 32
	.cfi_restore 30
	.cfi_restore 29
	.cfi_restore 19
	.cfi_def_cfa 31, 0
	ret
	.cfi_endproc
.LFE4076:
	.size	FilterWeb_v2, .-FilterWeb_v2
	.align	2
	.global	filter_table_init
	.type	filter_table_init, %function
filter_table_init:
.LFB4077:
	.loc 1 1633 0
	.cfi_startproc
	stp	x29, x30, [sp, -16]!
	.cfi_def_cfa_offset 16
	.cfi_offset 29, -16
	.cfi_offset 30, -8
	add	x29, sp, 0
	.cfi_def_cfa_register 29
	.loc 1 1634 0
	bl	filter_table_head_init
	.loc 1 1636 0
	adrp	x3, .LANCHOR2
	adrp	x2, proc_root
	add	x3, x3, :lo12:.LANCHOR2
	adrp	x0, .LC51
	mov	x4, 0
	add	x3, x3, 80
	add	x2, x2, :lo12:proc_root
	mov	w1, 0
	add	x0, x0, :lo12:.LC51
	bl	proc_create_data
	adrp	x1, .LANCHOR3-16
	.loc 1 1649 0
	ldp	x29, x30, [sp], 16
	.cfi_restore 30
	.cfi_restore 29
	.cfi_def_cfa 31, 0
	.loc 1 1636 0
	str	x0, [x1, #:lo12:.LANCHOR3-16]
	.loc 1 1649 0
	mov	w0, 0
	ret
	.cfi_endproc
.LFE4077:
	.size	filter_table_init, .-filter_table_init
	.align	2
	.global	filter_init_fastpath
	.type	filter_init_fastpath, %function
filter_init_fastpath:
.LFB4078:
	.loc 1 1654 0
	.cfi_startproc
	stp	x29, x30, [sp, -16]!
	.cfi_def_cfa_offset 16
	.cfi_offset 29, -16
	.cfi_offset 30, -8
	.loc 1 1655 0
	adrp	x0, .LANCHOR1+3304
	mov	w1, 1
	.loc 1 1654 0
	add	x29, sp, 0
	.cfi_def_cfa_register 29
	.loc 1 1655 0
	str	w1, [x0, #:lo12:.LANCHOR1+3304]
	.loc 1 1656 0
	bl	filter_table_init
	.loc 1 1658 0
	mov	w0, 0
	ldp	x29, x30, [sp], 16
	.cfi_restore 30
	.cfi_restore 29
	.cfi_def_cfa 31, 0
	ret
	.cfi_endproc
.LFE4078:
	.size	filter_init_fastpath, .-filter_init_fastpath
	.align	2
	.global	filter_exit_fastpath
	.type	filter_exit_fastpath, %function
filter_exit_fastpath:
.LFB4079:
	.loc 1 1661 0
	.cfi_startproc
	stp	x29, x30, [sp, -32]!
	.cfi_def_cfa_offset 32
	.cfi_offset 29, -32
	.cfi_offset 30, -24
	add	x29, sp, 0
	.cfi_def_cfa_register 29
	str	x19, [sp, 16]
	.cfi_offset 19, -16
	.loc 1 1662 0
	adrp	x19, .LANCHOR3
	add	x19, x19, :lo12:.LANCHOR3
	ldr	x0, [x19, -16]
	cbz	x0, .L532
	.loc 1 1664 0
	adrp	x1, proc_root
	adrp	x0, .LC51
	add	x1, x1, :lo12:proc_root
	add	x0, x0, :lo12:.LC51
	bl	remove_proc_entry
	.loc 1 1668 0
	str	xzr, [x19, -16]
.L532:
	.loc 1 1671 0
	mov	w0, 0
	ldr	x19, [sp, 16]
	ldp	x29, x30, [sp], 32
	.cfi_restore 30
	.cfi_restore 29
	.cfi_restore 19
	.cfi_def_cfa 31, 0
	ret
	.cfi_endproc
.LFE4079:
	.size	filter_exit_fastpath, .-filter_exit_fastpath
	.align	2
	.global	strtoint
	.type	strtoint, %function
strtoint:
.LFB4084:
	.loc 2 1228 0
	.cfi_startproc
	.loc 2 1228 0
	mov	x2, x0
	.loc 2 1231 0
	mov	w0, 0
	b	.L537
.L539:
	.loc 2 1234 0
	bhi	.L541
	.loc 2 1231 0 discriminator 2
	add	w0, w1, w4
.L537:
	.loc 2 1231 0 is_stmt 0 discriminator 1
	ldrb	w3, [x2]
	lsl	w1, w0, 3
	add	w1, w1, w0, lsl 1
	add	x2, x2, 1
	.loc 2 1234 0 is_stmt 1 discriminator 1
	sub	w4, w3, #48
	cmp	w4, 9
	.loc 2 1231 0 discriminator 1
	cbnz	w3, .L539
.L541:
	.loc 2 1241 0
	ret
	.cfi_endproc
.LFE4084:
	.size	strtoint, .-strtoint
	.align	2
	.global	clear_attack_address
	.type	clear_attack_address, %function
clear_attack_address:
.LFB4115:
	.loc 2 3292 0
	.cfi_startproc
	adrp	x3, .LANCHOR1
	.loc 2 3292 0
	mov	x0, 0
	.loc 2 3296 0
	add	x3, x3, :lo12:.LANCHOR1
.L543:
	.loc 2 3296 0 is_stmt 0 discriminator 3
	add	x2, x3, 2048
	.loc 2 3297 0 is_stmt 1 discriminator 3
	add	x1, x3, 1936
	.loc 2 3296 0 discriminator 3
	str	wzr, [x0, x2]
	.loc 2 3297 0 discriminator 3
	str	wzr, [x0, x1]
	add	x0, x0, 4
	.loc 2 3294 0 discriminator 3
	cmp	x0, 108
	bne	.L543
	.loc 2 3300 0
	ret
	.cfi_endproc
.LFE4115:
	.size	clear_attack_address, .-clear_attack_address
	.align	2
	.global	strtok
	.type	strtok, %function
strtok:
.LFB4118:
	.loc 2 3453 0
	.cfi_startproc
	stp	x29, x30, [sp, -48]!
	.cfi_def_cfa_offset 48
	.cfi_offset 29, -48
	.cfi_offset 30, -40
	add	x29, sp, 0
	.cfi_def_cfa_register 29
	stp	x21, x22, [sp, 32]
	stp	x19, x20, [sp, 16]
	.cfi_offset 21, -16
	.cfi_offset 22, -8
	.cfi_offset 19, -32
	.cfi_offset 20, -24
	.loc 2 3453 0
	mov	x22, x1
	mov	x19, x0
	adrp	x21, .LANCHOR3
	.loc 2 3456 0
	cbnz	x0, .L546
	.loc 2 3456 0 is_stmt 0 discriminator 2
	add	x0, x21, :lo12:.LANCHOR3
	ldr	x19, [x0, -8]
	.loc 2 3457 0 is_stmt 1 discriminator 2
	cbz	x19, .L550
.L546:
	.loc 2 3460 0
	mov	x1, x22
	mov	x0, x19
	bl	strspn
	add	x20, x19, x0
	.loc 2 3461 0
	ldrb	w0, [x19, x0]
	cbnz	w0, .L548
	.loc 2 3462 0
	add	x21, x21, :lo12:.LANCHOR3
	.loc 2 3463 0
	mov	x20, 0
	.loc 2 3462 0
	str	xzr, [x21, -8]
	.loc 2 3463 0
	b	.L547
.L548:
	.loc 2 3465 0
	mov	x1, x22
	mov	x0, x20
	bl	strpbrk
	.loc 2 3466 0
	cbz	x0, .L549
	.loc 2 3466 0 is_stmt 0 discriminator 1
	ldrb	w1, [x0]
	cbz	w1, .L549
	.loc 2 3467 0 is_stmt 1
	strb	wzr, [x0]
	add	x0, x0, 1
.L549:
	.loc 2 3468 0
	add	x21, x21, :lo12:.LANCHOR3
	str	x0, [x21, -8]
	.loc 2 3469 0
	b	.L547
.L550:
	.loc 2 3458 0
	mov	x20, 0
.L547:
	.loc 2 3470 0
	mov	x0, x20
	ldp	x19, x20, [sp, 16]
	ldp	x21, x22, [sp, 32]
	ldp	x29, x30, [sp], 48
	.cfi_restore 30
	.cfi_restore 29
	.cfi_restore 21
	.cfi_restore 22
	.cfi_restore 19
	.cfi_restore 20
	.cfi_def_cfa 31, 0
	ret
	.cfi_endproc
.LFE4118:
	.size	strtok, .-strtok
	.align	2
	.type	dos_single_write, %function
dos_single_write:
.LFB4123:
	.loc 2 3615 0
	.cfi_startproc
	stp	x29, x30, [sp, -160]!
	.cfi_def_cfa_offset 160
	.cfi_offset 29, -160
	.cfi_offset 30, -152
	mov	x0, x1
	add	x29, sp, 0
	.cfi_def_cfa_register 29
	stp	x21, x22, [sp, 32]
	stp	x19, x20, [sp, 16]
	stp	x23, x24, [sp, 48]
	str	x25, [sp, 64]
	.cfi_offset 21, -128
	.cfi_offset 22, -120
	.cfi_offset 19, -144
	.cfi_offset 20, -136
	.cfi_offset 23, -112
	.cfi_offset 24, -104
	.cfi_offset 25, -96
	.loc 2 3615 0
	mov	x22, x2
.LBB967:
.LBB968:
	.loc 2 3484 0
	cbz	x1, .L586
	cmp	x2, 1
	bls	.L586
.LBB969:
.LBB970:
.LBB971:
.LBB972:
.LBB973:
	.loc 11 83 0
#APP
// 83 "./arch/arm64/include/asm/thread_info.h" 1
	mrs x3, sp_el0
// 0 "" 2
#NO_APP
.LBE973:
.LBE972:
	.loc 12 291 0
	ldr	x3, [x3, 8]
#APP
// 291 "./arch/arm64/include/asm/uaccess.h" 1
	adds x0, x0, x2; ccmp x0, x3, #2, cc; cset x4, ls
// 0 "" 2
#NO_APP
.LBE971:
	cbz	x4, .L562
	.loc 12 293 0
	adrp	x24, .LANCHOR3
	add	x19, x24, :lo12:.LANCHOR3
	mov	x0, x19
	bl	__arch_copy_from_user
.LBE970:
.LBE969:
	.loc 2 3484 0
	cbz	x0, .L563
	b	.L586
.L562:
.LBB975:
.LBB974:
	.loc 12 295 0
	adrp	x0, .LANCHOR3
	mov	w1, 0
	add	x0, x0, :lo12:.LANCHOR3
	bl	memset
.L586:
	mov	x0, -14
	b	.L561
.L563:
.LBE974:
.LBE975:
	.loc 2 3485 0
	mov	x2, 80
	mov	x1, x19
	add	x0, x29, x2
	adrp	x21, .LC38
	.loc 2 3491 0
	adrp	x23, .L568
	.loc 2 3478 0
	mov	w19, 1
	.loc 2 3485 0
	bl	strncpy
	.loc 2 3535 0
	adrp	x25, .LANCHOR1
	.loc 2 3477 0
	add	x0, x29, 80
	.loc 2 3487 0
	add	x21, x21, :lo12:.LC38
	.loc 2 3491 0
	add	x23, x23, :lo12:.L568
	b	.L565
.L582:
	.loc 2 3490 0
	mov	x1, 0
	mov	w2, 0
	bl	simple_strtol
	.loc 2 3491 0
	sub	w1, w19, #1
	cmp	w1, 13
	bhi	.L566
	ldrb	w1, [x23,w1,uxtw]
	adr	x2, .Lrtx568
	add	x1, x2, w1, sxtb #2
	br	x1
.Lrtx568:
	.section	.rodata
	.align	0
	.align	2
.L568:
	.byte	(.L567 - .Lrtx568) / 4
	.byte	(.L569 - .Lrtx568) / 4
	.byte	(.L570 - .Lrtx568) / 4
	.byte	(.L571 - .Lrtx568) / 4
	.byte	(.L572 - .Lrtx568) / 4
	.byte	(.L573 - .Lrtx568) / 4
	.byte	(.L574 - .Lrtx568) / 4
	.byte	(.L575 - .Lrtx568) / 4
	.byte	(.L576 - .Lrtx568) / 4
	.byte	(.L577 - .Lrtx568) / 4
	.byte	(.L578 - .Lrtx568) / 4
	.byte	(.L579 - .Lrtx568) / 4
	.byte	(.L580 - .Lrtx568) / 4
	.byte	(.L581 - .Lrtx568) / 4
	.text
.L567:
	.loc 2 3494 0
	add	x1, x24, :lo12:.LANCHOR3
	strb	w0, [x1, 80]
	b	.L566
.L569:
	.loc 2 3497 0
	mov	x1, 0
	mov	w2, 16
	mov	x0, x20
	bl	simple_strtol
	.loc 2 3498 0
	add	x1, x24, :lo12:.LANCHOR3
	.loc 2 3497 0
	str	w0, [x1, 84]
	b	.L566
.L570:
	.loc 2 3501 0
	mov	x1, 0
	mov	w2, 16
	mov	x0, x20
	bl	simple_strtol
	.loc 2 3502 0
	add	x1, x24, :lo12:.LANCHOR3
	.loc 2 3501 0
	str	w0, [x1, 88]
	b	.L566
.L571:
	.loc 2 3507 0
	add	x1, x25, :lo12:.LANCHOR1
	str	w0, [x1, 1904]
	.loc 2 3508 0
	str	wzr, [x1, 2176]
	b	.L566
.L572:
	.loc 2 3511 0
	add	x1, x25, :lo12:.LANCHOR1
	str	w0, [x1, 1920]
	b	.L566
.L573:
	.loc 2 3514 0
	add	x1, x25, :lo12:.LANCHOR1
	str	w0, [x1, 1924]
	b	.L566
.L574:
	.loc 2 3517 0
	add	x1, x25, :lo12:.LANCHOR1
	str	w0, [x1, 1928]
	b	.L566
.L575:
	.loc 2 3520 0
	add	x1, x25, :lo12:.LANCHOR1
	str	w0, [x1, 1932]
	b	.L566
.L576:
	.loc 2 3523 0
	add	x1, x24, :lo12:.LANCHOR3
	str	w0, [x1, 92]
	b	.L566
.L577:
	.loc 2 3526 0
	add	x1, x24, :lo12:.LANCHOR3
	str	w0, [x1, 96]
	b	.L566
.L578:
	.loc 2 3529 0
	add	x1, x24, :lo12:.LANCHOR3
	str	w0, [x1, 100]
	b	.L566
.L579:
	.loc 2 3532 0
	add	x1, x24, :lo12:.LANCHOR3
	str	w0, [x1, 104]
	b	.L566
.L580:
	.loc 2 3535 0
	add	x1, x25, :lo12:.LANCHOR1
	str	w0, [x1, 2156]
	b	.L566
.L581:
	.loc 2 3539 0
	add	x1, x24, :lo12:.LANCHOR3
	str	w0, [x1, 108]
.L566:
	.loc 2 3544 0
	add	w19, w19, 1
	.loc 2 3489 0
	mov	x0, 0
	.loc 2 3544 0
	uxtb	w19, w19
.L565:
	.loc 2 3487 0
	mov	x1, x21
	bl	strtok
	mov	x20, x0
	cbnz	x0, .L582
	sxtw	x0, w22
.L561:
.LBE968:
.LBE967:
	.loc 2 3617 0
	ldp	x19, x20, [sp, 16]
	ldp	x21, x22, [sp, 32]
	ldp	x23, x24, [sp, 48]
	ldr	x25, [sp, 64]
	ldp	x29, x30, [sp], 160
	.cfi_restore 30
	.cfi_restore 29
	.cfi_restore 25
	.cfi_restore 23
	.cfi_restore 24
	.cfi_restore 21
	.cfi_restore 22
	.cfi_restore 19
	.cfi_restore 20
	.cfi_def_cfa 31, 0
	ret
	.cfi_endproc
.LFE4123:
	.size	dos_single_write, .-dos_single_write
	.align	2
	.global	IP2NAME
	.type	IP2NAME, %function
IP2NAME:
.LFB4120:
	.loc 2 3558 0
	.cfi_startproc
	stp	x29, x30, [sp, -48]!
	.cfi_def_cfa_offset 48
	.cfi_offset 29, -48
	.cfi_offset 30, -40
	.loc 2 3560 0
	lsr	w5, w0, 24
	ubfx	x4, x0, 16, 8
	.loc 2 3558 0
	add	x29, sp, 0
	.cfi_def_cfa_register 29
	str	x19, [sp, 16]
	.cfi_offset 19, -32
	.loc 2 3558 0
	mov	x19, x1
	.loc 2 3560 0
	adrp	x1, .LC52
	ubfx	x3, x0, 8, 8
	.loc 2 3558 0
	str	w0, [x29, 44]
	.loc 2 3560 0
	uxtb	w2, w0
	.loc 2 3559 0
	stp	xzr, xzr, [x19]
	.loc 2 3560 0
	add	x1, x1, :lo12:.LC52
	mov	x0, x19
	bl	sprintf
	.loc 2 3566 0
	mov	x0, x19
	ldr	x19, [sp, 16]
	ldp	x29, x30, [sp], 48
	.cfi_restore 30
	.cfi_restore 29
	.cfi_restore 19
	.cfi_def_cfa 31, 0
	ret
	.cfi_endproc
.LFE4120:
	.size	IP2NAME, .-IP2NAME
	.align	2
	.type	dos_read_proc, %function
dos_read_proc:
.LFB4121:
	.loc 2 3568 0
	.cfi_startproc
	stp	x29, x30, [sp, -96]!
	.cfi_def_cfa_offset 96
	.cfi_offset 29, -96
	.cfi_offset 30, -88
	.loc 2 3571 0
	adrp	x1, .LC53
	.loc 2 3568 0
	add	x29, sp, 0
	.cfi_def_cfa_register 29
	stp	x23, x24, [sp, 48]
	.cfi_offset 23, -48
	.cfi_offset 24, -40
	adrp	x23, .LANCHOR1
	.loc 2 3576 0
	adrp	x24, .LC54
	.loc 2 3568 0
	stp	x19, x20, [sp, 16]
	stp	x21, x22, [sp, 32]
	.cfi_offset 19, -80
	.cfi_offset 20, -72
	.cfi_offset 21, -64
	.cfi_offset 22, -56
	add	x20, x23, :lo12:.LANCHOR1
	.loc 2 3571 0
	adrp	x22, .LANCHOR3
	add	x2, x22, :lo12:.LANCHOR3
	add	x1, x1, :lo12:.LC53
	add	x19, x20, 2232
	.loc 2 3576 0
	add	x24, x24, :lo12:.LC54
	add	x20, x20, 3256
	.loc 2 3568 0
	mov	x21, x0
	stp	x25, x26, [sp, 64]
	stp	x27, x28, [sp, 80]
	.cfi_offset 25, -32
	.cfi_offset 26, -24
	.cfi_offset 27, -16
	.cfi_offset 28, -8
	.loc 2 3576 0
	add	x25, x2, 112
	.loc 2 3571 0
	bl	seq_printf
.L590:
	.loc 2 3574 0
	ldr	w0, [x19]
	cbz	w0, .L589
	.loc 2 3576 0
	mov	x1, x25
	bl	IP2NAME
	mov	x2, x0
	mov	x1, x24
	mov	x0, x21
	bl	seq_printf
.L589:
	add	x19, x19, 4
	.loc 2 3572 0 discriminator 2
	cmp	x19, x20
	bne	.L590
.L591:
.LBB976:
.LBB977:
.LBB978:
.LBB979:
.LBB980:
.LBB981:
.LBB982:
.LBB983:
	.loc 11 83 0
#APP
// 83 "./arch/arm64/include/asm/thread_info.h" 1
	mrs x1, sp_el0
// 0 "" 2
#NO_APP
.LBE983:
.LBE982:
.LBE981:
	.file 13 "include/asm-generic/preempt.h"
	.loc 13 53 0
	ldr	w0, [x1, 24]
	add	w0, w0, 512
	str	w0, [x1, 24]
.LBE980:
.LBE979:
	.file 14 "include/linux/bottom_half.h"
	.loc 14 12 0
.LBE978:
.LBE977:
.LBE976:
	.loc 2 3580 0
	adrp	x19, .LANCHOR0
	.loc 2 3587 0
	add	x24, x22, :lo12:.LANCHOR3
	.loc 2 3580 0
	add	x19, x19, :lo12:.LANCHOR0
	.loc 2 3587 0
	adrp	x25, .LC55
	.loc 2 3580 0
	add	x19, x19, 112
	.loc 2 3587 0
	add	x24, x24, 112
	add	x25, x25, :lo12:.LC55
	.loc 2 3582 0
	add	x20, x19, 40960
.L593:
	.loc 2 3584 0
	ldrb	w0, [x19]
	cmp	w0, 1
	bne	.L592
	.loc 2 3587 0
	ldr	w0, [x19, 28]
	mov	x1, x24
	bl	IP2NAME
	mov	x2, x0
	ldr	w7, [x19, 24]
	mov	x1, x25
	ldr	w6, [x19, 16]
	mov	x0, x21
	ldr	w5, [x19, 12]
	ldr	w4, [x19, 8]
	ldr	w3, [x19, 4]
	bl	seq_printf
.L592:
	.loc 2 3589 0 discriminator 2
	add	x19, x19, 40
	.loc 2 3582 0 discriminator 2
	cmp	x19, x20
	bne	.L593
	.loc 2 3598 0
	add	x26, x22, :lo12:.LANCHOR3
	adrp	x25, .LC56
	mov	x19, 0
	.loc 2 3594 0
	add	x20, x23, :lo12:.LANCHOR1
	.loc 2 3598 0
	add	x27, x26, 112
	add	x25, x25, :lo12:.LC56
.L597:
	.loc 2 3594 0
	add	x0, x20, 1936
	lsl	x24, x19, 2
	add	x1, x20, 2048
	ldr	w0, [x0, x19, lsl 2]
	cbz	w0, .L594
	ldr	w0, [x1, x19, lsl 2]
	b	.L595
.L594:
	.loc 2 3594 0 is_stmt 0 discriminator 1
	ldr	w0, [x1, x19, lsl 2]
	cbz	w0, .L596
.L595:
	.loc 2 3598 0 is_stmt 1
	mov	x1, x27
	bl	IP2NAME
	mov	x28, x0
	add	x0, x20, 1936
	adrp	x2, .LANCHOR4
	add	x2, x2, :lo12:.LANCHOR4
	add	x1, x26, 128
	ldr	w0, [x0, x24]
	ldr	x24, [x2, x19, lsl 3]
	bl	IP2NAME
	mov	x5, x0
	mov	x4, x24
	mov	x3, x28
	mov	x2, x24
	mov	x1, x25
	mov	x0, x21
	bl	seq_printf
.L596:
	add	x19, x19, 1
	.loc 2 3592 0 discriminator 2
	cmp	x19, 27
	bne	.L597
.L598:
.LBB984:
.LBB985:
	.loc 14 31 0
	adrp	x0, .L598
.LBE985:
.LBE984:
	.loc 2 3603 0
	add	x22, x22, :lo12:.LANCHOR3
.LBB988:
.LBB986:
	.loc 14 31 0
	mov	w1, 512
	add	x0, x0, :lo12:.L598
.LBE986:
.LBE988:
	.loc 2 3603 0
	add	x23, x23, :lo12:.LANCHOR1
.LBB989:
.LBB987:
	.loc 14 31 0
	bl	__local_bh_enable_ip
.LBE987:
.LBE989:
	.loc 2 3603 0
	ldrb	w19, [x22, 80]
	ldr	w0, [x22, 84]
	add	x1, x22, 112
	bl	IP2NAME
	mov	x20, x0
	ldr	w0, [x22, 88]
	add	x1, x22, 128
	bl	IP2NAME
	mov	x4, x0
	ldr	w6, [x22, 108]
	adrp	x1, .LC57
	ldr	w5, [x23, 1904]
	mov	x3, x20
	mov	x0, x21
	mov	w2, w19
	add	x1, x1, :lo12:.LC57
	bl	seq_printf
	.loc 2 3606 0
	mov	w0, 0
	ldp	x19, x20, [sp, 16]
	ldp	x21, x22, [sp, 32]
	ldp	x23, x24, [sp, 48]
	ldp	x25, x26, [sp, 64]
	ldp	x27, x28, [sp, 80]
	ldp	x29, x30, [sp], 96
	.cfi_restore 30
	.cfi_restore 29
	.cfi_restore 27
	.cfi_restore 28
	.cfi_restore 25
	.cfi_restore 26
	.cfi_restore 23
	.cfi_restore 24
	.cfi_restore 21
	.cfi_restore 22
	.cfi_restore 19
	.cfi_restore 20
	.cfi_def_cfa 31, 0
	ret
	.cfi_endproc
.LFE4121:
	.size	dos_read_proc, .-dos_read_proc
	.align	2
	.global	filter_addconnect
	.type	filter_addconnect, %function
filter_addconnect:
.LFB4124:
	.loc 2 3648 0
	.cfi_startproc
	.loc 2 3651 0
	adrp	x1, .LANCHOR1
	add	x1, x1, :lo12:.LANCHOR1
	add	x1, x1, x0, uxtb 2
	str	w0, [x1, 2232]
	.loc 2 3653 0
	ret
	.cfi_endproc
.LFE4124:
	.size	filter_addconnect, .-filter_addconnect
	.align	2
	.global	filter_delconnect
	.type	filter_delconnect, %function
filter_delconnect:
.LFB4125:
	.loc 2 3656 0
	.cfi_startproc
	.loc 2 3659 0
	adrp	x1, .LANCHOR1
	add	x1, x1, :lo12:.LANCHOR1
	add	x0, x1, x0, uxtb 2
	str	wzr, [x0, 2232]
	.loc 2 3661 0
	ret
	.cfi_endproc
.LFE4125:
	.size	filter_delconnect, .-filter_delconnect
	.align	2
	.global	filter_checkConnect
	.type	filter_checkConnect, %function
filter_checkConnect:
.LFB4126:
	.loc 2 3664 0
	.cfi_startproc
	.loc 2 3667 0
	adrp	x1, .LANCHOR1
	add	x1, x1, :lo12:.LANCHOR1
	add	x1, x1, x0, uxtb 2
	ldr	w1, [x1, 2232]
	cmp	w1, wzr
	cset	w2, eq
	cmp	w0, w1
	cset	w0, ne
	.loc 2 3672 0
	orr	w0, w2, w0
	ret
	.cfi_endproc
.LFE4126:
	.size	filter_checkConnect, .-filter_checkConnect
	.align	2
	.global	register_customRspStr
	.type	register_customRspStr, %function
register_customRspStr:
.LFB4127:
	.loc 2 3682 0
	.cfi_startproc
	stp	x29, x30, [sp, -48]!
	.cfi_def_cfa_offset 48
	.cfi_offset 29, -48
	.cfi_offset 30, -40
	add	x29, sp, 0
	.cfi_def_cfa_register 29
	stp	x19, x20, [sp, 16]
	.cfi_offset 19, -32
	.cfi_offset 20, -24
.LBB990:
.LBB991:
	.loc 2 3701 0
	adrp	x20, .LANCHOR0
.LBE991:
.LBE990:
	.loc 2 3682 0
	str	x21, [sp, 32]
	.cfi_offset 21, -16
.LBB994:
.LBB992:
	.loc 2 3701 0
	add	x21, x20, :lo12:.LANCHOR0
.LBE992:
.LBE994:
	.loc 2 3682 0
	mov	x19, x0
.LBB995:
.LBB993:
	.loc 2 3701 0
	ldr	x1, [x21, 64]
	cbz	x1, .L612
	.loc 2 3703 0
	mov	x0, x1
	bl	kfree
	.loc 2 3704 0
	str	xzr, [x21, 64]
.LBE993:
.LBE995:
	.loc 2 3684 0
	cbz	x19, .L613
	.loc 2 3686 0
	mov	x0, x19
.L625:
	bl	strlen
	add	x20, x20, :lo12:.LANCHOR0
.LBB996:
.LBB997:
	.loc 3 475 0
	mov	w1, 192
.LBE997:
.LBE996:
	.loc 2 3686 0
	add	x0, x0, 1
.LBB999:
.LBB998:
	.loc 3 475 0
	movk	w1, 0x240, lsl 16
	bl	__kmalloc
.LBE998:
.LBE999:
	.loc 2 3686 0
	str	x0, [x20, 64]
	.loc 2 3687 0
	cbz	x0, .L611
	.loc 2 3688 0
	mov	x1, x19
	bl	strcpy
	b	.L611
.L613:
.LBB1000:
.LBB1001:
	.loc 3 470 0
	adrp	x0, kmalloc_caches+72
.LBB1002:
.LBB1003:
	.loc 3 369 0
	mov	w1, 192
.LBE1003:
.LBE1002:
.LBE1001:
.LBE1000:
	.loc 2 3692 0
	add	x20, x20, :lo12:.LANCHOR0
.LBB1007:
.LBB1006:
.LBB1005:
.LBB1004:
	.loc 3 369 0
	movk	w1, 0x240, lsl 16
	ldr	x0, [x0, #:lo12:kmalloc_caches+72]
	bl	kmem_cache_alloc
.LBE1004:
.LBE1005:
.LBE1006:
.LBE1007:
	.loc 2 3692 0
	str	x0, [x20, 64]
	.loc 2 3693 0
	cbz	x0, .L611
	.loc 2 3694 0
	adrp	x1, .LC12
	mov	x2, 283
	add	x1, x1, :lo12:.LC12
	bl	memcpy
	b	.L611
.L612:
	.loc 2 3684 0
	cbnz	x0, .L625
	b	.L613
.L611:
	.loc 2 3697 0
	ldp	x19, x20, [sp, 16]
	ldr	x21, [sp, 32]
	ldp	x29, x30, [sp], 48
	.cfi_restore 30
	.cfi_restore 29
	.cfi_restore 21
	.cfi_restore 19
	.cfi_restore 20
	.cfi_def_cfa 31, 0
	ret
	.cfi_endproc
.LFE4127:
	.size	register_customRspStr, .-register_customRspStr
	.align	2
	.global	unregister_customRspStr
	.type	unregister_customRspStr, %function
unregister_customRspStr:
.LFB4128:
	.loc 2 3700 0
	.cfi_startproc
	stp	x29, x30, [sp, -32]!
	.cfi_def_cfa_offset 32
	.cfi_offset 29, -32
	.cfi_offset 30, -24
	add	x29, sp, 0
	.cfi_def_cfa_register 29
	str	x19, [sp, 16]
	.cfi_offset 19, -16
	.loc 2 3701 0
	adrp	x19, .LANCHOR0
	add	x19, x19, :lo12:.LANCHOR0
	ldr	x0, [x19, 64]
	cbz	x0, .L626
	.loc 2 3703 0
	bl	kfree
	.loc 2 3704 0
	str	xzr, [x19, 64]
.L626:
	.loc 2 3707 0
	ldr	x19, [sp, 16]
	ldp	x29, x30, [sp], 32
	.cfi_restore 30
	.cfi_restore 29
	.cfi_restore 19
	.cfi_def_cfa 31, 0
	ret
	.cfi_endproc
.LFE4128:
	.size	unregister_customRspStr, .-unregister_customRspStr
	.align	2
	.global	register_customRspHook
	.type	register_customRspHook, %function
register_customRspHook:
.LFB4129:
	.loc 2 3710 0
	.cfi_startproc
	.loc 2 3712 0
	adrp	x3, .LANCHOR3
	.loc 2 3711 0
	cbz	x0, .L632
	.loc 2 3712 0
	add	x4, x3, :lo12:.LANCHOR3
	str	x0, [x4, 144]
	b	.L633
.L632:
	.loc 2 3714 0
	add	x4, x3, :lo12:.LANCHOR3
	adrp	x0, GenerateHTTP401
	add	x0, x0, :lo12:GenerateHTTP401
	str	x0, [x4, 144]
.L633:
	.loc 2 3717 0
	add	x0, x3, :lo12:.LANCHOR3
	.loc 2 3716 0
	cbnz	x1, .L638
	.loc 2 3719 0
	adrp	x1, GenerateTCPFINACK
	add	x1, x1, :lo12:GenerateTCPFINACK
.L638:
	str	x1, [x0, 152]
	.loc 2 3722 0
	add	x3, x3, :lo12:.LANCHOR3
	.loc 2 3721 0
	cbz	x2, .L636
	.loc 2 3722 0
	str	x2, [x3, 160]
	b	.L631
.L636:
	.loc 2 3724 0
	adrp	x0, GenerateTCPENDACK
	add	x0, x0, :lo12:GenerateTCPENDACK
	str	x0, [x3, 160]
.L631:
	.loc 2 3726 0
	ret
	.cfi_endproc
.LFE4129:
	.size	register_customRspHook, .-register_customRspHook
	.align	2
	.global	unregister_customRspHook
	.type	unregister_customRspHook, %function
unregister_customRspHook:
.LFB4130:
	.loc 2 3729 0
	.cfi_startproc
	.loc 2 3730 0
	adrp	x0, .LANCHOR3
	add	x0, x0, :lo12:.LANCHOR3
	str	xzr, [x0, 144]
	.loc 2 3731 0
	str	xzr, [x0, 152]
	.loc 2 3732 0
	str	xzr, [x0, 160]
	.loc 2 3734 0
	ret
	.cfi_endproc
.LFE4130:
	.size	unregister_customRspHook, .-unregister_customRspHook
	.align	2
	.global	filter_enter
	.type	filter_enter, %function
filter_enter:
.LFB4131:
	.loc 2 3744 0
	.cfi_startproc
	stp	x29, x30, [sp, -80]!
	.cfi_def_cfa_offset 80
	.cfi_offset 29, -80
	.cfi_offset 30, -72
	add	x29, sp, 0
	.cfi_def_cfa_register 29
	stp	x21, x22, [sp, 32]
	.cfi_offset 21, -48
	.cfi_offset 22, -40
	.loc 2 3752 0
	adrp	x21, .LANCHOR1
	add	x1, x21, :lo12:.LANCHOR1
	.loc 2 3744 0
	stp	x19, x20, [sp, 16]
	stp	x23, x24, [sp, 48]
	stp	x25, x26, [sp, 64]
	.cfi_offset 19, -64
	.cfi_offset 20, -56
	.cfi_offset 23, -32
	.cfi_offset 24, -24
	.cfi_offset 25, -16
	.cfi_offset 26, -8
	.loc 2 3752 0
	ldr	w2, [x1, 1904]
	cbnz	w2, .L641
	.loc 2 3752 0 is_stmt 0 discriminator 1
	adrp	x2, .LANCHOR0+40
	ldr	w2, [x2, #:lo12:.LANCHOR0+40]
	cmp	w2, 1
	bhi	.L641
	.loc 2 3755 0 is_stmt 1
	ldr	w0, [x1, 2172]
	.loc 2 3756 0
	mov	w20, 1
	.loc 2 3755 0
	add	w0, w0, w20
	str	w0, [x1, 2172]
	.loc 2 3756 0
	b	.L968
.L641:
	mov	x19, x0
	.loc 2 3760 0
	bl	rtl_get_skb_type
	uxtb	w0, w0
	cbz	w0, .L643
.L644:
	mov	w20, 4
	b	.L968
.L643:
	.loc 2 3761 0
	mov	x0, x19
	bl	rtl_get_skb_protocol
	uxth	w0, w0
	cmp	w0, 8
	bne	.L644
	.loc 2 3815 0
	adrp	x22, .LANCHOR0
	add	x22, x22, :lo12:.LANCHOR0
	ldr	w0, [x22, 40]
	cmp	w0, 1
	bls	.L645
.LBB1113:
.LBB1114:
	.loc 2 1102 0
	mov	x0, x19
	bl	FilterWeb_v2
	mov	w20, w0
.LBE1114:
.LBE1113:
	.loc 2 3817 0
	cbz	w0, .L646
	.loc 2 3819 0
	adrp	x0, .LANCHOR3+144
	ldr	x1, [x0, #:lo12:.LANCHOR3+144]
	cbnz	x1, .L647
.L649:
	.loc 2 3822 0
	mov	w20, 0
	b	.L968
.L647:
	.loc 2 3820 0
	mov	x0, x19
	.loc 2 3822 0
	mov	w20, 0
	.loc 2 3820 0
	blr	x1
	b	.L968
.L646:
	.loc 2 3825 0
	adrp	x0, .LANCHOR3
	add	x0, x0, :lo12:.LANCHOR3
	ldr	x1, [x0, 144]
	cbz	x1, .L645
	.loc 2 3827 0
	add	x22, x22, 72
	ldrb	w1, [x22, 15]
	cmp	w1, 1
	bne	.L648
	.loc 2 3828 0
	ldr	x1, [x0, 152]
	cbnz	x1, .L979
	b	.L649
.L648:
	.loc 2 3832 0
	ldrb	w1, [x22, 16]
	cmp	w1, 1
	bne	.L645
	.loc 2 3833 0
	ldr	x1, [x0, 160]
	cbz	x1, .L649
.L979:
	.loc 2 3834 0
	mov	x0, x19
	blr	x1
	b	.L968
.L645:
	.loc 2 3855 0
	add	x0, x21, :lo12:.LANCHOR1
	ldr	w0, [x0, 1904]
	tbz	x0, 0, .L651
.LBB1115:
.LBB1116:
	.loc 2 3352 0
	mov	x0, x19
	.loc 2 3357 0
	adrp	x25, .LANCHOR3
	add	x22, x25, :lo12:.LANCHOR3
	.loc 2 3352 0
	bl	rtl_ip_hdr
	mov	x20, x0
	.loc 2 3357 0
	adrp	x0, .LC34
	add	x0, x0, :lo12:.LC34
	.loc 2 3353 0
	ldrb	w1, [x20]
	and	w23, w1, 15
	.loc 2 3357 0
	bl	rtl_get_dev_by_name
	str	x0, [x22, 168]
	.loc 2 3361 0
	adrp	x1, .LC35
	add	x0, x1, :lo12:.LC35
	bl	rtl_get_dev_by_name
	str	x0, [x22, 176]
	.loc 2 3363 0
	mov	x0, x19
	bl	rtl_get_skb_dev
	cbz	x0, .L651
	mov	x0, x19
	bl	rtl_get_skb_dev
	ldr	x1, [x22, 176]
	cmp	x1, x0
	bne	.L653
.L656:
	.loc 2 3371 0
	add	x22, x21, :lo12:.LANCHOR1
	.loc 2 3353 0
	ubfiz	x24, x23, 2, 4
	add	x26, x20, x24
	.loc 2 3371 0
	ldr	w23, [x22, 1904]
	tst	w23, 1022
	beq	.L655
	b	.L984
.L653:
	.loc 2 3363 0
	mov	x0, x19
	bl	rtl_get_skb_dev
	ldr	x1, [x22, 168]
	cmp	x1, x0
	bne	.L651
	b	.L656
.L655:
	.loc 2 3351 0
	mov	w22, 0
	b	.L657
.L984:
	.loc 2 3373 0
	ldr	w0, [x20, 12]
	bl	dos_pkt_locate.isra.4
	cbz	w0, .L655
	.loc 2 3376 0
	mov	w0, 34
	tst	w23, w0
	beq	.L659
.LBB1117:
.LBB1118:
	.loc 2 2401 0
	ldrb	w1, [x20, 9]
	.loc 2 2398 0
	ldr	x0, [x22, 3256]
	.loc 2 2401 0
	cmp	w1, 6
	bne	.L660
	ldrb	w1, [x26, 13]
	and	w2, w1, 63
	cmp	w2, 2
	bne	.L661
	.loc 2 2403 0
	ldr	w1, [x22, 1908]
	cmp	w1, 1
	bne	.L662
	ldr	w2, [x22, 2052]
	ldr	w1, [x20, 12]
	cmp	w2, w1
	beq	.L663
.L662:
	.loc 2 2407 0
	add	x2, x25, :lo12:.LANCHOR3
	.loc 2 2405 0
	ldr	w1, [x0, 4]
	add	w1, w1, 1
	str	w1, [x0, 4]
	.loc 2 2407 0
	ldr	w0, [x2, 92]
	cmp	w1, w0
	ble	.L659
	tbz	x23, 5, .L659
	cmp	w0, wzr
	ble	.L659
	.loc 2 2409 0
	add	x0, x21, :lo12:.LANCHOR1
	ldr	w2, [x20, 12]
	.loc 2 2411 0
	mov	w1, 1
	.loc 2 2409 0
	str	w2, [x0, 2052]
	.loc 2 2411 0
	str	w1, [x0, 1908]
	.loc 2 2412 0
	ldr	w1, [x0, 1916]
	.loc 2 2410 0
	ldr	w2, [x20, 16]
	.loc 2 2412 0
	orr	w1, w1, 32
	.loc 2 2410 0
	str	w2, [x0, 1940]
	.loc 2 2412 0
	str	w1, [x0, 1916]
.L659:
.LBE1118:
.LBE1117:
	.loc 2 3378 0
	mov	w0, 68
	tst	w23, w0
	bne	.L665
.L764:
.LBB1121:
.LBB1122:
	.loc 2 2438 0
	mov	w22, 0
	b	.L666
.L665:
	.loc 2 2425 0
	ldrb	w1, [x20, 9]
	.loc 2 2423 0
	add	x0, x21, :lo12:.LANCHOR1
	.loc 2 2425 0
	cmp	w1, 6
	.loc 2 2423 0
	ldr	x0, [x0, 3256]
	.loc 2 2425 0
	bne	.L777
	ldrb	w1, [x26, 13]
.L667:
	and	w1, w1, 63
	cmp	w1, 1
	bne	.L777
	.loc 2 2427 0
	add	x1, x21, :lo12:.LANCHOR1
	ldr	w2, [x1, 1908]
	cmp	w2, 1
	bne	.L669
	ldr	w2, [x1, 2056]
	ldr	w1, [x20, 12]
	cmp	w2, w1
	beq	.L775
.L669:
	.loc 2 2430 0
	add	x2, x25, :lo12:.LANCHOR3
	.loc 2 2429 0
	ldr	w1, [x0, 8]
	add	w1, w1, 1
	str	w1, [x0, 8]
	.loc 2 2430 0
	ldr	w0, [x2, 96]
	cmp	w1, w0
	ble	.L777
	cmp	w0, wzr
	ble	.L777
	tbz	x23, 6, .L777
	.loc 2 2432 0
	add	x0, x21, :lo12:.LANCHOR1
	ldr	w2, [x20, 12]
	.loc 2 2434 0
	mov	w1, 1
	.loc 2 2435 0
	mov	w22, 0
	.loc 2 2432 0
	str	w2, [x0, 2056]
	.loc 2 2434 0
	str	w1, [x0, 1908]
	.loc 2 2435 0
	ldr	w1, [x0, 1916]
	.loc 2 2433 0
	ldr	w2, [x20, 16]
	str	w2, [x0, 1944]
	.loc 2 2435 0
	orr	w1, w1, 64
	str	w1, [x0, 1916]
	.loc 2 2438 0
	mov	w0, 0
	b	.L668
.L775:
	.loc 2 2427 0
	mov	w22, 0
	.loc 2 2428 0
	mov	w0, -1
	b	.L668
.L777:
	.loc 2 2430 0
	mov	w22, 0
	.loc 2 2438 0
	mov	w0, 0
	b	.L668
.L830:
	mov	w0, 0
.L668:
.LBE1122:
.LBE1121:
	.loc 2 3379 0
	orr	w22, w22, w0
.L666:
	.loc 2 3380 0
	mov	w0, 136
	tst	w23, w0
	beq	.L670
.LBB1123:
.LBB1124:
	.loc 2 2445 0
	ldrb	w2, [x20, 9]
	.loc 2 2444 0
	add	x0, x21, :lo12:.LANCHOR1
	.loc 2 2445 0
	cmp	w2, 17
	.loc 2 2444 0
	ldr	x1, [x0, 3256]
	.loc 2 2445 0
	bne	.L972
	.loc 2 2447 0
	ldr	w2, [x0, 1908]
	cmp	w2, 1
	bne	.L673
	ldr	w2, [x0, 2060]
	ldr	w0, [x20, 12]
	cmp	w2, w0
	beq	.L778
.L673:
	.loc 2 2449 0
	ldr	w0, [x1, 12]
	add	w0, w0, 1
	str	w0, [x1, 12]
	.loc 2 2450 0
	add	x1, x25, :lo12:.LANCHOR3
	ldr	w1, [x1, 100]
	cmp	w0, w1
	ble	.L972
	tbz	x23, 7, .L972
	cmp	w1, wzr
	ble	.L972
	.loc 2 2452 0
	add	x0, x21, :lo12:.LANCHOR1
	ldr	w1, [x20, 12]
	str	w1, [x0, 2060]
	.loc 2 2453 0
	ldr	w1, [x20, 16]
	str	w1, [x0, 1948]
	.loc 2 2454 0
	mov	w1, 1
	str	w1, [x0, 1908]
	.loc 2 2455 0
	ldr	w1, [x0, 1916]
	orr	w1, w1, 128
	str	w1, [x0, 1916]
.L972:
	.loc 2 2458 0
	mov	w0, 0
	b	.L672
.L778:
	.loc 2 2448 0
	mov	w0, -1
.L672:
.LBE1124:
.LBE1123:
	.loc 2 3381 0
	orr	w22, w22, w0
.L670:
	.loc 2 3382 0
	mov	w0, 272
	tst	w23, w0
	beq	.L675
.LBB1125:
.LBB1126:
	.loc 2 2465 0
	ldrb	w2, [x20, 9]
	.loc 2 2464 0
	add	x0, x21, :lo12:.LANCHOR1
	.loc 2 2465 0
	cmp	w2, 1
	.loc 2 2464 0
	ldr	x1, [x0, 3256]
	.loc 2 2465 0
	bne	.L973
	.loc 2 2467 0
	ldr	w2, [x0, 1908]
	cmp	w2, 1
	bne	.L678
	ldr	w2, [x0, 2064]
	ldr	w0, [x20, 12]
	cmp	w2, w0
	beq	.L779
.L678:
	.loc 2 2469 0
	ldr	w0, [x1, 16]
	add	w0, w0, 1
	str	w0, [x1, 16]
	.loc 2 2470 0
	add	x1, x25, :lo12:.LANCHOR3
	ldr	w1, [x1, 104]
	cmp	w0, w1
	ble	.L973
	tbz	x23, 8, .L973
	cmp	w1, wzr
	ble	.L973
	.loc 2 2472 0
	add	x0, x21, :lo12:.LANCHOR1
	ldr	w1, [x20, 12]
	str	w1, [x0, 2064]
	.loc 2 2473 0
	ldr	w1, [x20, 16]
	str	w1, [x0, 1952]
	.loc 2 2474 0
	mov	w1, 1
	str	w1, [x0, 1908]
	.loc 2 2475 0
	ldr	w1, [x0, 1916]
	orr	w1, w1, 256
	str	w1, [x0, 1916]
.L973:
	.loc 2 2478 0
	mov	w0, 0
	b	.L677
.L779:
	.loc 2 2468 0
	mov	w0, -1
.L677:
.LBE1126:
.LBE1125:
	.loc 2 3383 0
	orr	w22, w22, w0
.L675:
	.loc 2 3384 0
	tst	w23, 3145728
	beq	.L680
.LBB1127:
.LBB1128:
	.loc 2 2487 0
	ldrb	w1, [x20, 9]
	.loc 2 2486 0
	add	x2, x21, :lo12:.LANCHOR1
	.loc 2 2485 0
	ldrb	w0, [x20]
	.loc 2 2487 0
	cmp	w1, 1
	.loc 2 2500 0
	mov	w1, 0
	.loc 2 2485 0
	and	w0, w0, 15
	.loc 2 2486 0
	ldr	x3, [x2, 3256]
	.loc 2 2487 0
	bne	.L681
	.loc 2 2485 0
	ubfiz	x0, x0, 2, 4
	.loc 2 2487 0
	ldrb	w0, [x20, x0]
	and	w0, w0, -9
	uxtb	w0, w0
	cbnz	w0, .L681
	.loc 2 2489 0
	ldr	w0, [x2, 1908]
	cmp	w0, 1
	bne	.L682
	ldr	w1, [x2, 2068]
	ldr	w0, [x20, 12]
	cmp	w1, w0
	beq	.L782
.L682:
	.loc 2 2491 0
	ldr	w0, [x3, 20]
	.loc 2 2500 0
	mov	w1, 0
	.loc 2 2491 0
	add	w0, w0, 1
	str	w0, [x3, 20]
	b	.L681
.L782:
	.loc 2 2490 0
	mov	w1, -1
.L681:
.LBE1128:
.LBE1127:
	.loc 2 3385 0
	orr	w22, w22, w1
.L680:
	.loc 2 3386 0
	tbz	x23, 9, .L684
.LBB1129:
.LBB1130:
	.loc 2 2985 0
	ldrb	w2, [x20, 9]
	.loc 2 2983 0
	add	x0, x21, :lo12:.LANCHOR1
	.loc 2 2985 0
	cmp	w2, 6
	.loc 2 2983 0
	ldr	x1, [x0, 3256]
	.loc 2 2985 0
	bne	.L974
	.loc 2 2988 0
	ldrh	w0, [x1, 36]
	cbz	w0, .L686
	ldrh	w2, [x26, 2]
	cmp	w2, w0
	.loc 2 2989 0
	ldr	w0, [x1, 24]
	.loc 2 2988 0
	beq	.L688
	.loc 2 2989 0
	add	w0, w0, 1
	str	w0, [x1, 24]
	ldrb	w2, [x20, 9]
.L685:
	.loc 2 2993 0
	cmp	w2, 17
	bne	.L688
	.loc 2 2995 0
	ldrh	w2, [x1, 36]
	cbz	w2, .L689
	ldrh	w3, [x26, 2]
	cmp	w3, w2
	beq	.L688
	.loc 2 2996 0
	add	w0, w0, 1
	str	w0, [x1, 24]
.L688:
	.loc 2 3001 0
	tbz	x23, 23, .L691
	cmp	w0, 10
	ble	.L684
.L761:
	.loc 2 3009 0
	add	x0, x21, :lo12:.LANCHOR1
	ldr	w1, [x0, 1916]
	orr	w1, w1, 512
	str	w1, [x0, 1916]
	.loc 2 3010 0
	ldr	w1, [x20, 12]
	str	w1, [x0, 2072]
	.loc 2 3011 0
	ldr	w1, [x20, 16]
	str	w1, [x0, 1960]
.L684:
.LBE1130:
.LBE1129:
	.loc 2 3388 0
	tbz	x23, 22, .L655
.L657:
	.loc 2 3394 0
	add	x0, x25, :lo12:.LANCHOR3
	ldr	w3, [x0, 108]
	tbz	x3, 0, .L693
.LBB1132:
.LBB1133:
	.loc 2 2835 0
	ldrb	w0, [x20, 9]
	.loc 2 2904 0
	mov	w2, 0
	.loc 2 2835 0
	cmp	w0, 6
	bne	.L694
	.loc 2 2837 0
	ldrb	w0, [x20]
	ubfiz	x0, x0, 2, 4
	add	x0, x20, x0
	.loc 2 2838 0
	ldrb	w1, [x0, 12]
	and	w1, w1, 240
	asr	w1, w1, 2
	.loc 2 2840 0
	cmp	w1, 20
	ble	.L694
	.loc 2 2846 0
	adrp	x4, .L698
	sub	w2, w1, #20
	.loc 2 2843 0
	add	x0, x0, 20
	.loc 2 2846 0
	add	x4, x4, :lo12:.L698
	.loc 2 2842 0
	mov	w1, 0
	b	.L695
.L707:
	.loc 2 2846 0
	ldrb	w5, [x0]
	cmp	w5, 8
	bhi	.L696
	ldrb	w5, [x4,w5,uxtw]
	adr	x6, .Lrtx698
	add	x5, x6, w5, sxtb #2
	br	x5
.Lrtx698:
	.section	.rodata
	.align	0
	.align	2
.L698:
	.byte	(.L699 - .Lrtx698) / 4
	.byte	(.L699 - .Lrtx698) / 4
	.byte	(.L700 - .Lrtx698) / 4
	.byte	(.L701 - .Lrtx698) / 4
	.byte	(.L696 - .Lrtx698) / 4
	.byte	(.L696 - .Lrtx698) / 4
	.byte	(.L696 - .Lrtx698) / 4
	.byte	(.L696 - .Lrtx698) / 4
	.byte	(.L702 - .Lrtx698) / 4
	.text
.L699:
	.loc 2 2855 0
	add	x0, x0, 1
	.loc 2 2856 0
	add	w1, w1, 1
	b	.L695
.L700:
	.loc 2 2860 0
	ldrb	w5, [x0, 1]
	cmp	w5, 4
	bne	.L696
	.loc 2 2867 0
	add	x0, x0, 4
	.loc 2 2868 0
	add	w1, w1, 4
	b	.L695
.L701:
	.loc 2 2872 0
	ldrb	w5, [x0, 1]
	cmp	w5, 3
	bne	.L696
	.loc 2 2879 0
	add	x0, x0, 3
	.loc 2 2880 0
	add	w1, w1, 3
	b	.L695
.L702:
	.loc 2 2884 0
	ldrb	w5, [x0, 1]
	cmp	w5, 10
	bne	.L696
	.loc 2 2891 0
	add	x0, x0, 10
	.loc 2 2892 0
	add	w1, w1, 10
	b	.L695
.L696:
	.loc 2 2897 0
	add	x0, x21, :lo12:.LANCHOR1
	ldr	w1, [x20, 12]
	.loc 2 2899 0
	mov	w2, -1
	.loc 2 2897 0
	str	w1, [x0, 2148]
	.loc 2 2898 0
	ldr	w1, [x20, 16]
	str	w1, [x0, 2036]
	b	.L694
.L695:
	.loc 2 2844 0
	cmp	w1, w2
	bcc	.L707
	.loc 2 2904 0
	mov	w2, 0
.L694:
.LBE1133:
.LBE1132:
	.loc 2 3395 0
	orr	w22, w22, w2
.L693:
	.loc 2 3396 0
	tbz	x3, 1, .L708
.LBB1134:
.LBB1135:
	.loc 2 2756 0
	ldrb	w0, [x20, 9]
	cmp	w0, 6
	beq	.L831
	cmp	w0, 17
	.loc 2 2766 0
	mov	w0, 0
	.loc 2 2756 0
	bne	.L709
.L831:
	.loc 2 2759 0
	ldrh	w0, [x26, 2]
	mov	w1, 4352
	and	w2, w0, -513
	cmp	w2, w1
	beq	.L711
	cmp	w0, 1792
	beq	.L711
	ldrh	w0, [x20, x24]
	and	w2, w0, -513
	cmp	w2, w1
	beq	.L711
	cmp	w0, 1792
	.loc 2 2766 0
	mov	w0, 0
	.loc 2 2759 0
	bne	.L709
.L711:
	ldr	w0, [x20, 16]
	ldr	w1, [x20, 12]
	cmp	w1, w0
	.loc 2 2766 0
	mov	w0, 0
	.loc 2 2759 0
	bne	.L709
	.loc 2 2761 0
	add	x0, x21, :lo12:.LANCHOR1
	str	w1, [x0, 2152]
	.loc 2 2762 0
	ldr	w1, [x20, 16]
	str	w1, [x0, 2040]
	.loc 2 2763 0
	mov	w0, -1
.L709:
.LBE1135:
.LBE1134:
	.loc 2 3397 0
	orr	w22, w22, w0
.L708:
	.loc 2 3399 0
	tbz	x23, 29, .L713
.LBB1136:
.LBB1137:
	.loc 2 2774 0
	ldrb	w0, [x20, 9]
	cmp	w0, 1
	bne	.L714
	ldrh	w0, [x20, 6]
	.loc 2 2807 0
	mov	w1, 0
	rev16	w0, w0
	.loc 2 2776 0
	and	w0, w0, 16383
	cbnz	w0, .L715
	ldrh	w0, [x20, 2]
	.loc 2 2778 0
	ldrb	w2, [x20]
	rev16	w0, w0
	ubfiz	w2, w2, 2, 4
	uxth	w0, w0
	sub	w0, w0, w2
	.loc 2 2779 0
	cmp	w0, 3
	bgt	.L715
.L971:
	.loc 2 2801 0
	add	x0, x21, :lo12:.LANCHOR1
	ldr	w1, [x0, 1916]
	orr	w1, w1, 536870912
	str	w1, [x0, 1916]
	.loc 2 2802 0
	ldr	w1, [x20, 12]
	str	w1, [x0, 2136]
	.loc 2 2803 0
	ldr	w1, [x20, 16]
	str	w1, [x0, 2024]
	.loc 2 2804 0
	mov	w1, -1
.L715:
.LBE1137:
.LBE1136:
	.loc 2 3400 0
	orr	w22, w22, w1
.L713:
	.loc 2 3401 0
	tbz	x23, 30, .L716
.LBB1139:
.LBB1140:
	.loc 2 2815 0
	ldrb	w1, [x20, 9]
	.loc 2 2814 0
	ldrb	w0, [x20]
	.loc 2 2815 0
	cmp	w1, 1
	.loc 2 2822 0
	mov	w1, 0
	.loc 2 2814 0
	and	w0, w0, 15
	.loc 2 2815 0
	bne	.L717
	.loc 2 2814 0
	ubfiz	x0, x0, 2, 4
	.loc 2 2815 0
	ldrb	w0, [x20, x0]
	cmp	w0, 8
	bne	.L717
	.loc 2 2817 0
	add	x0, x21, :lo12:.LANCHOR1
	ldr	w1, [x0, 1916]
	orr	w1, w1, 1073741824
	str	w1, [x0, 1916]
	.loc 2 2818 0
	ldr	w1, [x20, 12]
	str	w1, [x0, 2140]
	.loc 2 2819 0
	ldr	w1, [x20, 16]
	str	w1, [x0, 2028]
	.loc 2 2820 0
	mov	w1, -1
.L717:
.LBE1140:
.LBE1139:
	.loc 2 3402 0
	orr	w22, w22, w1
.L716:
	.loc 2 3403 0
	tbz	w23, #31, .L718
.LBB1141:
.LBB1142:
	.loc 2 2914 0
	ldrb	w1, [x20, 9]
	.loc 2 2913 0
	ldrb	w0, [x20]
	.loc 2 2914 0
	cmp	w1, 1
	.loc 2 2924 0
	mov	w1, 0
	.loc 2 2913 0
	and	w0, w0, 15
	.loc 2 2914 0
	bne	.L719
	.loc 2 2913 0
	ubfiz	x0, x0, 2, 4
	.loc 2 2914 0
	ldrb	w0, [x20, x0]
	cbnz	w0, .L719
	.loc 2 2916 0
	add	x0, x21, :lo12:.LANCHOR1
	ldr	w2, [x0, 2168]
	cbnz	w2, .L719
	.loc 2 2918 0
	ldr	w1, [x0, 1916]
	orr	w1, w1, -2147483648
	str	w1, [x0, 1916]
	.loc 2 2919 0
	ldr	w1, [x20, 12]
	str	w1, [x0, 2144]
	.loc 2 2920 0
	ldr	w1, [x20, 16]
	str	w1, [x0, 2032]
	.loc 2 2921 0
	mov	w1, -1
.L719:
.LBE1142:
.LBE1141:
	.loc 2 3404 0
	orr	w22, w22, w1
.L718:
	.loc 2 3406 0
	tbz	x23, 15, .L720
.LBB1143:
.LBB1144:
	.loc 2 2931 0
	ldrb	w0, [x20, 9]
	.loc 2 2942 0
	mov	w2, 0
	.loc 2 2931 0
	cmp	w0, 6
	bne	.L721
	.loc 2 2933 0
	ldrb	w0, [x26, 13]
	add	x1, x25, :lo12:.LANCHOR3
	add	x1, x1, 184
	and	x0, x0, 63
	ldrb	w0, [x1, x0]
	cbz	w0, .L721
	.loc 2 2936 0
	add	x0, x21, :lo12:.LANCHOR1
	.loc 2 2939 0
	mov	w2, -1
	.loc 2 2936 0
	ldr	w1, [x0, 1916]
	orr	w1, w1, 32768
	str	w1, [x0, 1916]
	.loc 2 2937 0
	ldr	w1, [x20, 12]
	str	w1, [x0, 2096]
	.loc 2 2938 0
	ldr	w1, [x20, 16]
	str	w1, [x0, 1984]
.L721:
.LBE1144:
.LBE1143:
	.loc 2 3407 0
	orr	w22, w22, w2
.L720:
	.loc 2 3408 0
	tbz	x23, 16, .L722
.LBB1145:
.LBB1146:
	.loc 2 2698 0
	ldrb	w0, [x20, 9]
	.loc 2 2717 0
	mov	w1, 0
	.loc 2 2698 0
	cmp	w0, 6
	bne	.L723
	ldrb	w0, [x26, 13]
	and	w0, w0, 63
	cmp	w0, 2
	bne	.L723
	ldrh	w0, [x20, 2]
.LBB1147:
	.loc 2 2700 0
	ldrb	w2, [x20]
	rev16	w0, w0
	ubfiz	w2, w2, 2, 4
	uxth	w0, w0
	sub	w0, w0, w2
	ldrb	w2, [x26, 12]
	ubfx	x2, x2, 4, 4
	.loc 2 2701 0
	cmp	w0, w2, lsl 2
	bne	.L975
	ldrh	w0, [x20, 6]
	rev16	w0, w0
	.loc 2 2708 0
	tbz	x0, 13, .L723
.L975:
	.loc 2 2710 0
	add	x0, x21, :lo12:.LANCHOR1
	ldr	w1, [x0, 1916]
	orr	w1, w1, 65536
	str	w1, [x0, 1916]
	.loc 2 2711 0
	ldr	w1, [x20, 12]
	str	w1, [x0, 2100]
	.loc 2 2712 0
	ldr	w1, [x20, 16]
	str	w1, [x0, 1988]
	.loc 2 2713 0
	mov	w1, -1
.L723:
.LBE1147:
.LBE1146:
.LBE1145:
	.loc 2 3409 0
	orr	w22, w22, w1
.L722:
	.loc 2 3410 0
	tbz	x23, 11, .L725
	ldr	w1, [x20, 12]
.LBB1148:
.LBB1149:
	.loc 2 2570 0
	mov	w2, 0
	.loc 2 2562 0
	ldr	w0, [x20, 16]
	cmp	w1, w0
	bne	.L726
	.loc 2 2564 0
	add	x0, x21, :lo12:.LANCHOR1
	.loc 2 2567 0
	mov	w2, -1
	.loc 2 2565 0
	str	w1, [x0, 2080]
	.loc 2 2566 0
	ldr	w1, [x20, 16]
	str	w1, [x0, 1968]
	.loc 2 2564 0
	ldr	w1, [x0, 1916]
	orr	w1, w1, 2048
	str	w1, [x0, 1916]
.L726:
.LBE1149:
.LBE1148:
	.loc 2 3411 0
	orr	w22, w22, w2
.L725:
	.loc 2 3412 0
	tbz	x23, 18, .L727
.LBB1150:
.LBB1151:
	.loc 2 2741 0
	ldrb	w1, [x20, 9]
	.loc 2 2751 0
	mov	w0, 0
	.loc 2 2741 0
	cmp	w1, 17
	bne	.L728
	.loc 2 2743 0
	ldrh	w1, [x26, 2]
	mov	w2, 4352
	and	w3, w1, -513
	cmp	w3, w2
	beq	.L729
	cmp	w1, 1792
	beq	.L729
	ldrh	w1, [x20, x24]
	and	w3, w1, -513
	cmp	w3, w2
	beq	.L729
	cmp	w1, 1792
	bne	.L728
.L729:
	.loc 2 2745 0
	add	x0, x21, :lo12:.LANCHOR1
	ldr	w1, [x0, 1916]
	orr	w1, w1, 262144
	str	w1, [x0, 1916]
	.loc 2 2746 0
	ldr	w1, [x20, 12]
	str	w1, [x0, 2108]
	.loc 2 2747 0
	ldr	w1, [x20, 16]
	str	w1, [x0, 1996]
	.loc 2 2748 0
	mov	w0, -1
.L728:
.LBE1151:
.LBE1150:
	.loc 2 3413 0
	orr	w22, w22, w0
.L727:
	.loc 2 3414 0
	tbz	x23, 17, .L981
.LBB1152:
.LBB1153:
	.loc 2 2677 0
	ldrb	w0, [x20, 9]
	.loc 2 2691 0
	mov	w3, 0
	.loc 2 2677 0
	cmp	w0, 17
	bne	.L732
	ldrh	w0, [x20, 6]
	rev16	w0, w0
	.loc 2 2679 0
	and	w0, w0, 16383
	cbnz	w0, .L732
	ldrh	w0, [x20, 2]
	ldrh	w1, [x26, 4]
	rev16	w0, w0
	.loc 2 2681 0
	ldrb	w2, [x20]
	rev16	w1, w1
	uxth	w0, w0
	ubfiz	w2, w2, 2, 4
	sub	w0, w0, w2
	.loc 2 2682 0
	cmp	w0, w1, uxth
	ble	.L732
	.loc 2 2684 0
	add	x0, x21, :lo12:.LANCHOR1
	.loc 2 2687 0
	mov	w3, -1
	.loc 2 2684 0
	ldr	w1, [x0, 1916]
	orr	w1, w1, 131072
	str	w1, [x0, 1916]
	.loc 2 2685 0
	ldr	w1, [x20, 12]
	str	w1, [x0, 2104]
	.loc 2 2686 0
	ldr	w1, [x20, 16]
	str	w1, [x0, 1992]
.L732:
.LBE1153:
.LBE1152:
	.loc 2 3415 0
	orr	w22, w22, w3
.L981:
	.loc 2 3416 0
	tbz	x23, 14, .L733
.LBB1154:
.LBB1155:
	.loc 2 2722 0
	ldrh	w0, [x20, 6]
	.loc 2 2737 0
	mov	w2, 0
.LBB1156:
.LBB1157:
	.file 15 "include/uapi/linux/swab.h"
	.loc 15 53 0
	lsl	w1, w0, 8
	orr	w0, w1, w0, lsr 8
	uxth	w0, w0
.LBE1157:
.LBE1156:
	.loc 2 2725 0
	tbnz	x0, 13, .L734
	ands	w0, w0, 8191
	beq	.L734
	ldrh	w1, [x20, 2]
	.loc 2 2728 0
	lsl	w0, w0, 3
	rev16	w1, w1
	add	w0, w0, w1, uxth
	ldrb	w1, [x20]
	ubfiz	w1, w1, 2, 4
	sub	w0, w0, w1
	.loc 2 2729 0
	mov	x1, 65535
	cmp	x1, x0, sxtw
	bcs	.L734
	.loc 2 2731 0
	add	x0, x21, :lo12:.LANCHOR1
	.loc 2 2734 0
	mov	w2, -1
	.loc 2 2731 0
	ldr	w1, [x0, 1916]
	orr	w1, w1, 16384
	str	w1, [x0, 1916]
	.loc 2 2732 0
	ldr	w1, [x20, 12]
	str	w1, [x0, 2092]
	.loc 2 2733 0
	ldr	w1, [x20, 16]
	str	w1, [x0, 1980]
.L734:
.LBE1155:
.LBE1154:
	.loc 2 3417 0
	orr	w22, w22, w2
.L733:
	.loc 2 3418 0
	tbz	x23, 10, .L735
.LBB1158:
.LBB1159:
	.loc 2 2547 0
	ldrb	w1, [x20, 9]
	.loc 2 2557 0
	mov	w2, 0
	.loc 2 2546 0
	ldrb	w0, [x20]
	.loc 2 2547 0
	cmp	w1, 1
	.loc 2 2546 0
	and	w0, w0, 15
	.loc 2 2547 0
	bne	.L736
	.loc 2 2546 0
	ubfiz	x0, x0, 2, 4
	.loc 2 2547 0
	ldrb	w0, [x20, x0]
	cmp	w0, 8
	bne	.L736
	.loc 2 2549 0
	add	x3, x25, :lo12:.LANCHOR3
	ldr	w1, [x20, 12]
	rev	w4, w1
	ldr	w0, [x3, 84]
	ldr	w3, [x3, 88]
	eor	w0, w4, w0
	tst	w0, w3
	bne	.L736
	.loc 2 2551 0
	add	x0, x21, :lo12:.LANCHOR1
	.loc 2 2554 0
	mov	w2, -1
	.loc 2 2552 0
	str	w1, [x0, 2076]
	.loc 2 2553 0
	ldr	w1, [x20, 16]
	str	w1, [x0, 1964]
	.loc 2 2551 0
	ldr	w1, [x0, 1916]
	orr	w1, w1, 1024
	str	w1, [x0, 1916]
.L736:
.LBE1159:
.LBE1158:
	.loc 2 3419 0
	orr	w22, w22, w2
.L735:
	.loc 2 3420 0
	tbz	x23, 19, .L737
.LBB1160:
.LBB1161:
	.loc 2 2596 0
	ldrb	w0, [x20, 9]
	.loc 2 2604 0
	mov	w2, 0
	.loc 2 2596 0
	cmp	w0, 17
	bne	.L738
	.loc 2 2597 0
	add	x3, x25, :lo12:.LANCHOR3
	ldr	w1, [x20, 12]
	rev	w4, w1
	ldr	w0, [x3, 84]
	ldr	w3, [x3, 88]
	eor	w0, w4, w0
	tst	w0, w3
	bne	.L738
	.loc 2 2598 0
	add	x0, x21, :lo12:.LANCHOR1
	.loc 2 2601 0
	mov	w2, -1
	.loc 2 2599 0
	str	w1, [x0, 2112]
	.loc 2 2600 0
	ldr	w1, [x20, 16]
	str	w1, [x0, 2000]
	.loc 2 2598 0
	ldr	w1, [x0, 1916]
	orr	w1, w1, 524288
	str	w1, [x0, 1916]
.L738:
.LBE1161:
.LBE1160:
	.loc 2 3421 0
	orr	w22, w22, w2
.L737:
	.loc 2 3422 0
	tbz	x23, 24, .L739
.LBB1162:
.LBB1163:
	.loc 2 2581 0
	ldrb	w1, [x20, 9]
	.loc 2 2589 0
	mov	w2, 0
	.loc 2 2579 0
	ldrb	w0, [x20]
	.loc 2 2581 0
	cmp	w1, 1
	.loc 2 2579 0
	and	w0, w0, 15
	.loc 2 2581 0
	bne	.L740
	.loc 2 2579 0
	ubfiz	x0, x0, 2, 4
	.loc 2 2581 0
	ldrb	w0, [x20, x0]
	and	w0, w0, -9
	uxtb	w0, w0
	cbnz	w0, .L740
	.loc 2 2582 0
	ldr	w1, [x20, 12]
.LBB1164:
.LBB1165:
	.file 16 "include/linux/in.h"
	.loc 16 49 0
	and	w0, w1, 240
.LBE1165:
.LBE1164:
	.loc 2 2582 0
	cmp	w0, 224
	beq	.L741
	cmn	w1, #1
	beq	.L741
	rev	w0, w1
	tbz	x0, 0, .L740
.L741:
	.loc 2 2583 0
	add	x0, x21, :lo12:.LANCHOR1
	.loc 2 2586 0
	mov	w2, -1
	.loc 2 2584 0
	str	w1, [x0, 2116]
	.loc 2 2585 0
	ldr	w1, [x20, 16]
	str	w1, [x0, 2004]
	.loc 2 2583 0
	ldr	w1, [x0, 1916]
	orr	w1, w1, 16777216
	str	w1, [x0, 1916]
.L740:
.LBE1163:
.LBE1162:
	.loc 2 3423 0
	orr	w22, w22, w2
.L739:
	.loc 2 3424 0
	tbz	x23, 25, .L742
.LBB1166:
.LBB1167:
	.loc 2 2612 0
	ldrb	w0, [x20, 9]
	.loc 2 2621 0
	mov	w1, 0
	.loc 2 2612 0
	cmp	w0, 17
	bne	.L743
	.loc 2 2613 0
	ldrh	w0, [x20, x24]
	and	w2, w0, 32767
	.loc 2 2614 0
	cmp	w2, 1792
	beq	.L832
	.loc 2 2613 0
	mov	w2, 4864
	.loc 2 2614 0
	cmp	w0, w2
	bne	.L743
.L832:
	ldrh	w2, [x26, 2]
	mov	w0, 34560
	.loc 2 2621 0
	mov	w1, 0
	.loc 2 2614 0
	cmp	w2, w0
	bne	.L743
	.loc 2 2615 0
	add	x0, x21, :lo12:.LANCHOR1
	.loc 2 2616 0
	ldr	w2, [x20, 12]
	.loc 2 2618 0
	mov	w1, -1
	.loc 2 2616 0
	str	w2, [x0, 2120]
	.loc 2 2615 0
	ldr	w2, [x0, 1916]
	orr	w2, w2, 33554432
	str	w2, [x0, 1916]
	.loc 2 2617 0
	ldr	w2, [x20, 16]
	str	w2, [x0, 2008]
.L743:
.LBE1167:
.LBE1166:
	.loc 2 3425 0
	orr	w22, w22, w1
.L742:
	.loc 2 3426 0
	tbz	x23, 26, .L745
.LBB1168:
.LBB1169:
	.loc 2 2631 0
	ldrb	w0, [x20, 9]
	.loc 2 2640 0
	mov	w2, 0
	.loc 2 2631 0
	cmp	w0, 6
	bne	.L746
	.loc 2 2632 0
	ldrb	w1, [x26, 13]
	mov	w0, 23
	tst	w1, w0
	beq	.L747
	and	w0, w1, 3
	cmp	w0, 3
	beq	.L747
	.loc 2 2633 0
	mov	w0, 17
	and	w0, w1, w0
	cmp	w0, 1
	bne	.L746
.L747:
	.loc 2 2634 0
	add	x0, x21, :lo12:.LANCHOR1
	.loc 2 2635 0
	ldr	w1, [x20, 12]
	.loc 2 2637 0
	mov	w2, -1
	.loc 2 2635 0
	str	w1, [x0, 2124]
	.loc 2 2634 0
	ldr	w1, [x0, 1916]
	orr	w1, w1, 67108864
	str	w1, [x0, 1916]
	.loc 2 2636 0
	ldr	w1, [x20, 16]
	str	w1, [x0, 2012]
.L746:
.LBE1169:
.LBE1168:
	.loc 2 3427 0
	orr	w22, w22, w2
.L745:
	.loc 2 3428 0
	tbz	x23, 27, .L748
.LBB1170:
.LBB1171:
	.loc 2 2650 0
	ldrb	w0, [x20, 9]
	.loc 2 2656 0
	mov	w2, 0
	.loc 2 2650 0
	cmp	w0, 6
	bne	.L749
	ldrb	w0, [x26, 13]
	tbz	x0, 0, .L749
	.loc 2 2651 0
	add	x0, x21, :lo12:.LANCHOR1
	.loc 2 2652 0
	ldr	w1, [x20, 12]
	.loc 2 2654 0
	mov	w2, -1
	.loc 2 2652 0
	str	w1, [x0, 2128]
	.loc 2 2651 0
	ldr	w1, [x0, 1916]
	.loc 2 2653 0
	ldr	w3, [x20, 16]
	.loc 2 2651 0
	orr	w1, w1, 134217728
	.loc 2 2653 0
	str	w3, [x0, 2016]
	.loc 2 2651 0
	str	w1, [x0, 1916]
.L749:
.LBE1171:
.LBE1170:
	.loc 2 3429 0
	orr	w22, w22, w2
.L748:
	.loc 2 3430 0
	tbz	x23, 28, .L983
	ldr	w1, [x20, 12]
.LBB1172:
.LBB1173:
.LBB1174:
.LBB1175:
	.loc 16 49 0
	and	w0, w1, 240
.LBE1175:
.LBE1174:
	.loc 2 2662 0
	cmp	w0, 224
	beq	.L751
	cmn	w1, #1
	beq	.L751
	rev	w0, w1
	.loc 2 2669 0
	mov	w2, 0
	.loc 2 2662 0
	tbz	x0, 0, .L752
.L751:
	.loc 2 2663 0
	add	x0, x21, :lo12:.LANCHOR1
	.loc 2 2666 0
	mov	w2, -1
	.loc 2 2664 0
	str	w1, [x0, 2132]
	.loc 2 2663 0
	ldr	w1, [x0, 1916]
	.loc 2 2665 0
	ldr	w3, [x20, 16]
	.loc 2 2663 0
	orr	w1, w1, 268435456
	.loc 2 2665 0
	str	w3, [x0, 2020]
	.loc 2 2663 0
	str	w1, [x0, 1916]
.L752:
.LBE1173:
.LBE1172:
	.loc 2 3431 0
	orr	w22, w22, w2
.L983:
	.loc 2 3432 0
	tbz	x23, 12, .L753
.LBB1176:
.LBB1177:
	.loc 2 2533 0
	add	x25, x25, :lo12:.LANCHOR3
	ldr	w1, [x20, 12]
	ldrb	w3, [x20, 9]
	rev	w2, w1
	ldr	w0, [x25, 84]
	ldr	w4, [x25, 88]
	eor	w0, w2, w0
	tst	w0, w4
	bne	.L826
	cmp	w3, 1
	beq	.L826
	.loc 2 2535 0
	add	x0, x21, :lo12:.LANCHOR1
	.loc 2 2538 0
	mov	w2, -1
	.loc 2 2536 0
	str	w1, [x0, 2084]
	.loc 2 2535 0
	ldr	w1, [x0, 1916]
	.loc 2 2537 0
	ldr	w3, [x20, 16]
	.loc 2 2535 0
	orr	w1, w1, 4096
	.loc 2 2537 0
	str	w3, [x0, 1972]
	.loc 2 2535 0
	str	w1, [x0, 1916]
	b	.L754
.L826:
	.loc 2 2540 0
	mov	w2, 0
.L754:
.LBE1177:
.LBE1176:
	.loc 2 3433 0
	orr	w22, w22, w2
.L753:
	.loc 2 3434 0
	tbz	x23, 13, .L755
.LBB1178:
.LBB1179:
	.loc 2 2947 0
	ldr	w0, [x20, 12]
	bl	dos_pkt_locate.isra.4
	cbz	w0, .L756
	.loc 2 2948 0
	add	x0, x21, :lo12:.LANCHOR1
	ldrh	w3, [x20, 4]
	rev16	w3, w3
	ldr	x2, [x0, 3256]
	.loc 2 2951 0
	ldrh	w1, [x2, 32]
	cmp	w1, w3, uxth
	beq	.L978
	.loc 2 2950 0
	mov	w0, 0
	.loc 2 2951 0
	cbnz	w1, .L756
.L978:
	.loc 2 2954 0
	ldrh	w1, [x20, 6]
	.loc 2 2950 0
	mov	w0, 0
.LBB1180:
.LBB1181:
	.loc 15 53 0
	lsl	w4, w1, 8
	orr	w1, w4, w1, lsr 8
	uxth	w1, w1
.LBE1181:
.LBE1180:
	.loc 2 2954 0
	and	w4, w1, 16383
	cbz	w4, .L756
	.loc 2 2956 0
	ldrh	w4, [x2, 34]
	ubfiz	w5, w1, 3, 13
	cmp	w5, w4
	blt	.L758
	.loc 2 2958 0
	tbnz	x1, 13, .L759
	.loc 2 2960 0
	strh	wzr, [x2, 32]
	.loc 2 2961 0
	strh	wzr, [x2, 34]
	b	.L756
.L759:
	.loc 2 2965 0
	strh	w3, [x2, 32]
	.loc 2 2966 0
	ldrb	w1, [x20]
	ldrh	w3, [x20, 2]
	ubfx	x1, x1, 0, 4
	rev16	w3, w3
	uxtb	w1, w1
	ubfiz	w1, w1, 2, 14
	sub	w1, w4, w1
	add	w1, w1, w3, uxth
	strh	w1, [x2, 34]
	b	.L756
.L758:
	.loc 2 2971 0
	add	x1, x21, :lo12:.LANCHOR1
	.loc 2 2972 0
	ldr	w2, [x20, 12]
	.loc 2 2974 0
	mov	w0, -1
	.loc 2 2972 0
	str	w2, [x1, 2088]
	.loc 2 2971 0
	ldr	w2, [x1, 1916]
	.loc 2 2973 0
	ldr	w3, [x20, 16]
	.loc 2 2971 0
	orr	w2, w2, 8192
	.loc 2 2973 0
	str	w3, [x1, 1976]
	.loc 2 2971 0
	str	w2, [x1, 1916]
.L756:
.LBE1179:
.LBE1178:
	.loc 2 3435 0
	orr	w22, w22, w0
.L755:
	.loc 2 3437 0
	cbnz	w22, .L649
.L651:
.LBE1116:
.LBE1115:
	.loc 2 3861 0
	mov	x0, x19
	bl	rtl_ip_hdr
	ldrb	w0, [x0, 9]
	cmp	w0, 1
	beq	.L644
	.loc 2 3873 0
	add	x21, x21, :lo12:.LANCHOR1
	.loc 2 3876 0
	mov	w20, 1
	.loc 2 3873 0
	ldr	w0, [x21, 2172]
	add	w0, w0, w20
	str	w0, [x21, 2172]
	.loc 2 3876 0
	b	.L968
.L686:
.LBB1187:
.LBB1186:
.LBB1182:
.LBB1131:
	.loc 2 2991 0
	ldrh	w0, [x26, 2]
	strh	w0, [x1, 36]
	ldrb	w2, [x20, 9]
.L974:
	ldr	w0, [x1, 24]
	b	.L685
.L689:
	.loc 2 2998 0
	ldrh	w2, [x26, 2]
	strh	w2, [x1, 36]
	b	.L688
.L691:
	.loc 2 3007 0
	cmp	w0, 200
	bgt	.L761
	b	.L684
.L660:
.LBE1131:
.LBE1182:
	.loc 2 3378 0
	mov	w0, 68
	tst	w23, w0
	beq	.L764
	b	.L777
.L661:
	mov	w2, 68
	tst	w23, w2
	bne	.L667
.LBB1183:
.LBB1119:
	.loc 2 2415 0
	mov	w22, 0
	b	.L765
.L768:
	ldrh	w0, [x20, 2]
.LBE1119:
.LBE1183:
.LBB1184:
.LBB1138:
	.loc 2 2796 0
	cmp	w1, wzr
	.loc 2 2792 0
	ldrb	w1, [x20]
	.loc 2 2796 0
	mov	w2, 20
	rev16	w0, w0
	.loc 2 2792 0
	ubfiz	w1, w1, 2, 4
	uxth	w0, w0
	sub	w0, w0, w1
	.loc 2 2796 0
	mov	w1, 8
	csel	w1, w1, w2, ne
	.loc 2 2799 0
	cmp	w0, w1
	.loc 2 2807 0
	mov	w1, 0
	.loc 2 2799 0
	bge	.L715
	b	.L971
.L714:
	.loc 2 2790 0
	cmp	w0, 17
	cset	w1, eq
	cmp	w0, 6
	beq	.L768
	cbnz	w1, .L768
	b	.L715
.L765:
.LBE1138:
.LBE1184:
	.loc 2 3380 0
	mov	w0, 136
	tst	w23, w0
	beq	.L670
	b	.L972
.L663:
	.loc 2 3378 0
	mov	w0, 68
.LBB1185:
.LBB1120:
	.loc 2 2404 0
	mov	w22, -1
.LBE1120:
.LBE1185:
	.loc 2 3378 0
	tst	w23, w0
	beq	.L765
	b	.L830
.L968:
.LBE1186:
.LBE1187:
	.loc 2 3877 0
	mov	w0, w20
	ldp	x19, x20, [sp, 16]
	ldp	x21, x22, [sp, 32]
	ldp	x23, x24, [sp, 48]
	ldp	x25, x26, [sp, 64]
	ldp	x29, x30, [sp], 80
	.cfi_restore 30
	.cfi_restore 29
	.cfi_restore 25
	.cfi_restore 26
	.cfi_restore 23
	.cfi_restore 24
	.cfi_restore 21
	.cfi_restore 22
	.cfi_restore 19
	.cfi_restore 20
	.cfi_def_cfa 31, 0
	ret
	.cfi_endproc
.LFE4131:
	.size	filter_enter, .-filter_enter
	.align	2
	.global	filter_out
	.type	filter_out, %function
filter_out:
.LFB4132:
	.loc 2 3880 0
	.cfi_startproc
	stp	x29, x30, [sp, -16]!
	.cfi_def_cfa_offset 16
	.cfi_offset 29, -16
	.cfi_offset 30, -8
	add	x29, sp, 0
	.cfi_def_cfa_register 29
	.loc 2 3883 0
	bl	rtl_ip_hdr
	.loc 2 3885 0
	ldrb	w2, [x0, 9]
	.loc 2 3884 0
	ldrb	w1, [x0]
	.loc 2 3885 0
	cmp	w2, 1
	.loc 2 3884 0
	and	w1, w1, 15
	.loc 2 3885 0
	bne	.L986
	.loc 2 3884 0 discriminator 1
	ubfiz	x1, x1, 2, 4
	.loc 2 3885 0 discriminator 1
	ldrb	w0, [x0, x1]
	cmp	w0, 8
	bne	.L986
	.loc 2 3887 0
	adrp	x1, jiffies
	adrp	x0, .LANCHOR1
	add	x0, x0, :lo12:.LANCHOR1
	ldr	x1, [x1, #:lo12:jiffies]
	str	x1, [x0, 2160]
	.loc 2 3888 0
	str	w2, [x0, 2168]
.L986:
	.loc 2 3891 0
	mov	w0, 0
	ldp	x29, x30, [sp], 16
	.cfi_restore 30
	.cfi_restore 29
	.cfi_def_cfa 31, 0
	ret
	.cfi_endproc
.LFE4132:
	.size	filter_out, .-filter_out
	.section	.init.text,"ax",%progbits
	.align	2
	.global	filter_init
	.type	filter_init, %function
filter_init:
.LFB4133:
	.loc 2 3917 0
	.cfi_startproc
	stp	x29, x30, [sp, -48]!
	.cfi_def_cfa_offset 48
	.cfi_offset 29, -48
	.cfi_offset 30, -40
	.loc 2 3949 0
	adrp	x3, .LANCHOR2
	adrp	x2, proc_root
	.loc 2 3917 0
	add	x29, sp, 0
	.cfi_def_cfa_register 29
	stp	x19, x20, [sp, 16]
	.cfi_offset 19, -32
	.cfi_offset 20, -24
	.loc 2 3920 0
	adrp	x19, .LANCHOR1
	.loc 2 3926 0
	adrp	x20, .LANCHOR3
	add	x20, x20, :lo12:.LANCHOR3
	.loc 2 3920 0
	add	x19, x19, :lo12:.LANCHOR1
	.loc 2 3949 0
	add	x3, x3, :lo12:.LANCHOR2
	adrp	x0, .LC58
	mov	x4, 0
	add	x3, x3, 304
	add	x2, x2, :lo12:proc_root
	mov	w1, 0
	add	x0, x0, :lo12:.LC58
	.loc 2 3917 0
	str	x21, [sp, 32]
	.cfi_offset 21, -16
	.loc 2 3920 0
	str	wzr, [x19, 1904]
	.loc 2 3958 0
	add	x21, x19, 2184
	.loc 2 3921 0
	str	wzr, [x19, 2172]
	.loc 2 3926 0
	strb	wzr, [x20, 248]
	.loc 2 3949 0
	bl	proc_create_data
	.loc 2 3958 0
	mov	x3, 0
	.loc 2 3949 0
	str	x0, [x20, 256]
	.loc 2 3958 0
	mov	x2, 0
	mov	x0, x21
	mov	w1, 0
	bl	init_timer_key
	.loc 2 3960 0
	str	xzr, [x19, 2216]
	.loc 2 3959 0
	adrp	x1, jiffies
	.loc 2 3961 0
	adrp	x3, dos_timer_fn
	add	x3, x3, :lo12:dos_timer_fn
	.loc 2 3962 0
	mov	x0, x21
	.loc 2 3961 0
	str	x3, [x19, 2208]
	.loc 2 3959 0
	ldr	x2, [x1, #:lo12:jiffies]
	.loc 2 3962 0
	ldr	x1, [x1, #:lo12:jiffies]
	.loc 2 3959 0
	add	x2, x2, 100
	str	x2, [x19, 2200]
	.loc 2 3962 0
	add	x1, x1, 100
	bl	mod_timer
	.loc 2 3964 0
	add	x0, x20, 184
	.loc 2 3965 0
	mov	w1, 1
	.loc 2 3964 0
	stp	xzr, xzr, [x0]
	stp	xzr, xzr, [x0, 32]
	stp	xzr, xzr, [x0, 48]
	stp	xzr, xzr, [x0, 16]
.LBB1188:
.LBB1189:
	.loc 1 1655 0
	mov	w0, 1
.LBE1189:
.LBE1188:
	.loc 2 3965 0
	strb	w1, [x20, 247]
	strb	w1, [x20, 242]
	strb	w1, [x20, 225]
	strb	w1, [x20, 224]
	strb	w1, [x20, 217]
	strb	w1, [x20, 216]
	strb	w1, [x20, 193]
	strb	w1, [x20, 192]
	strb	w1, [x20, 187]
	strb	w1, [x20, 184]
.LBB1191:
.LBB1190:
	.loc 1 1655 0
	str	w0, [x19, 3304]
	.loc 1 1656 0
	bl	filter_table_init
.LBE1190:
.LBE1191:
	.loc 2 3991 0
	mov	w0, 0
	ldr	x21, [sp, 32]
	ldp	x19, x20, [sp, 16]
	ldp	x29, x30, [sp], 48
	.cfi_restore 30
	.cfi_restore 29
	.cfi_restore 21
	.cfi_restore 19
	.cfi_restore 20
	.cfi_def_cfa 31, 0
	ret
	.cfi_endproc
.LFE4133:
	.size	filter_init, .-filter_init
	.section	.exit.text,"ax",%progbits
	.align	2
	.global	filter_exit
	.type	filter_exit, %function
filter_exit:
.LFB4134:
	.loc 2 3994 0
	.cfi_startproc
	stp	x29, x30, [sp, -32]!
	.cfi_def_cfa_offset 32
	.cfi_offset 29, -32
	.cfi_offset 30, -24
	add	x29, sp, 0
	.cfi_def_cfa_register 29
	str	x19, [sp, 16]
	.cfi_offset 19, -16
	.loc 2 3997 0
	adrp	x19, .LANCHOR3
	add	x19, x19, :lo12:.LANCHOR3
	ldr	x1, [x19, 256]
	cbz	x1, .L989
	.loc 2 3998 0
	adrp	x0, .LC58
	add	x0, x0, :lo12:.LC58
	bl	remove_proc_entry
	.loc 2 3999 0
	str	xzr, [x19, 256]
.L989:
	.loc 2 4001 0
	adrp	x0, .LANCHOR1
	add	x0, x0, :lo12:.LANCHOR1
	add	x0, x0, 2184
	bl	del_timer_sync
	.loc 2 4006 0
	bl	filter_exit_fastpath
	.loc 2 4010 0
	ldr	x19, [sp, 16]
	ldp	x29, x30, [sp], 32
	.cfi_restore 30
	.cfi_restore 29
	.cfi_restore 19
	.cfi_def_cfa 31, 0
	ret
	.cfi_endproc
.LFE4134:
	.size	filter_exit, .-filter_exit
	.global	fast_path_cusRspTCPEndAck_func
	.global	fast_path_cusRspTCPFinAck_func
	.global	fast_path_cusRsp401_func
	.global	dos_proc_fops
	.global	___strtok
	.global	wan_ppp_dev
	.global	wan_dev
	.global	filter_table_proc_fops
	.global	table_list_head
	.global	filter_tlb
	.section	.rodata
	.align	3
.LANCHOR4 = . + 0
	.type	rtl_dos_name, %object
	.size	rtl_dos_name, 224
rtl_dos_name:
	.xword	.LC59
	.xword	.LC60
	.xword	.LC61
	.xword	.LC62
	.xword	.LC63
	.xword	.LC64
	.xword	.LC65
	.xword	.LC66
	.xword	.LC67
	.xword	.LC68
	.xword	.LC69
	.xword	.LC70
	.xword	.LC71
	.xword	.LC72
	.xword	.LC73
	.xword	.LC74
	.xword	.LC75
	.xword	.LC76
	.xword	.LC77
	.xword	.LC78
	.xword	.LC79
	.xword	.LC80
	.xword	.LC81
	.xword	.LC82
	.xword	.LC83
	.xword	.LC84
	.xword	.LC85
	.xword	.LC86
	.data
	.align	3
.LANCHOR2 = . + 0
	.type	filter_tlb, %object
	.size	filter_tlb, 80
filter_tlb:
	.word	0
	.zero	4
	.xword	0
	.word	1
	.zero	4
	.xword	rtl_ip_range_filter_fastpath
	.word	2
	.zero	4
	.xword	rtl_mac_filter_fastpath
	.word	3
	.zero	4
	.xword	rtl_url_filter_fastpath
	.word	4
	.zero	4
	.xword	rtl_schedule_filter_fastpath
	.type	filter_table_proc_fops, %object
	.size	filter_table_proc_fops, 224
filter_table_proc_fops:
	.zero	8
	.xword	seq_lseek
	.xword	seq_read
	.xword	filter_table_single_write
	.zero	56
	.xword	filter_table_single_open
	.zero	8
	.xword	single_release
	.zero	112
	.type	dos_proc_fops, %object
	.size	dos_proc_fops, 224
dos_proc_fops:
	.zero	8
	.xword	seq_lseek
	.xword	seq_read
	.xword	dos_single_write
	.zero	56
	.xword	dos_single_open
	.zero	8
	.xword	single_release
	.zero	112
	.section	.rodata.str1.8,"aMS",%progbits,1
	.align	3
.LC0:
	.string	"type=%d num=%d\n"
.LC1:
	.string	"index=%d\t"
	.zero	6
.LC2:
	.string	"mac=%02x:%02x:%02x:%02x:%02x:%02x\n"
	.zero	5
.LC3:
	.string	"index=%d\t\t"
	.zero	5
.LC4:
	.string	"url=%s\n"
.LC5:
	.string	"start=%x\t"
	.zero	6
.LC6:
	.string	"end=%x\t"
.LC7:
	.string	"day=%x\n"
.LC8:
	.string	"unknow table type\n"
	.zero	5
.LC9:
	.string	"Mode:%d %s\n"
	.zero	4
.LC10:
	.string	"br-lan"
	.zero	1
.LC11:
	.string	"dos_filter: alloc skb fail!\n"
	.zero	3
.LC12:
	.ascii	"HTTP/1.1 401 The web site "
	.string	"is blocked by administrator\r\nServer: Embedded HTTP Server 2.00\r\nConnection: close\r\n\r\n<HTML><HEAD><TITLE>401 The web site is blocked by administrator</TITLE></HEAD>\n<BODY BGCOLOR=\"#ffffff\"><H4>401 The web site is blocked by administrator</H4></BODY></HTML>\n"
	.zero	5
.LC13:
	.string	"DoS: Whole System SYN Flood Attack\n"
	.zero	4
.LC14:
	.string	"DoS: Whole System FIN Flood Attack\n"
	.zero	4
.LC15:
	.string	"DoS: Whole System UDP Flood Attack\n"
	.zero	4
.LC16:
	.string	"DoS: Whole System ICMP Flood Attack\n"
	.zero	3
.LC17:
	.string	"DoS: Per-source SYN Flood Attack source=%u.%u.%u.%u destination=%u.%u.%u.%u\n"
	.zero	3
.LC18:
	.string	"DoS: Per-source FIN Flood Attack source=%u.%u.%u.%u destination=%u.%u.%u.%u\n"
	.zero	3
.LC19:
	.string	"DoS: Per-source UDP Flood Attack source=%u.%u.%u.%u destination=%u.%u.%u.%u\n"
	.zero	3
.LC20:
	.string	"DoS: Per-source ICMP Flood Attack source=%u.%u.%u.%u destination=%u.%u.%u.%u\n"
	.zero	2
.LC21:
	.string	"DoS: Port Scan Attack source=%u.%u.%u.%u destination=%u.%u.%u.%u\n"
	.zero	6
.LC22:
	.string	"DoS: Tcp Scan Attack source=%u.%u.%u.%u destination=%u.%u.%u.%u\n"
	.zero	7
.LC23:
	.string	"DoS: Tcp SYN With Data Attack source=%u.%u.%u.%u destination=%u.%u.%u.%u\n"
	.zero	6
.LC24:
	.string	"DoS: IP Land Attack source=%u.%u.%u.%u destination=%u.%u.%u.%u\n"
.LC25:
	.string	"DoS: UdpEchoChargen Attack source=%u.%u.%u.%u destination=%u.%u.%u.%u\n"
	.zero	1
.LC26:
	.string	"DoS: UdpBomb Attack source=%u.%u.%u.%u destination=%u.%u.%u.%u\n"
.LC27:
	.string	"DoS: PingOfDeath Attack source=%u.%u.%u.%u destination=%u.%u.%u.%u\n"
	.zero	4
.LC28:
	.string	"DoS: IcmpSmurf Attack source=%u.%u.%u.%u destination=%u.%u.%u.%u\n"
	.zero	6
.LC29:
	.string	"DoS: IpSpoof Attack source=%u.%u.%u.%u destination=%u.%u.%u.%u\n"
.LC30:
	.string	"DoS: TearDrop Attack source=%u.%u.%u.%u destination=%u.%u.%u.%u\n"
	.zero	7
.LC31:
	.string	"GET "
	.zero	3
.LC32:
	.string	"Host: "
	.zero	1
.LC33:
	.string	"%s"
	.zero	5
.LC34:
	.string	"ppp0"
	.zero	3
.LC35:
	.string	"eth0"
	.zero	3
.LC36:
	.string	"wlan0"
	.zero	2
.LC37:
	.string	"init"
	.zero	3
.LC38:
	.string	" "
	.zero	6
.LC39:
	.string	"flush"
	.zero	2
.LC40:
	.string	"enable_log"
	.zero	5
.LC41:
	.string	"white"
	.zero	2
.LC42:
	.string	"black"
	.zero	2
.LC43:
	.string	"add:"
	.zero	3
.LC44:
	.string	"#"
	.zero	6
.LC45:
	.string	";"
	.zero	6
.LC46:
	.string	"[ip_range_filter]%d.%d.%d.%d ===> %d.%d.%d.%d  [Blocked]\n"
	.zero	6
.LC47:
	.string	"[mac_filter]%d.%d.%d.%d(%02x:%02x:%02x:%02x:%02x:%02x) ===> %d.%d.%d.%d [Blocked]\n"
	.zero	5
.LC48:
	.string	"[url_key_filter]%d.%d.%d.%d ==> %d.%d.%d.%d(%s)  [Blocked]\n"
	.zero	4
.LC49:
	.string	"[schedule_filter]%d.%d.%d.%d ===> %d.%d.%d.%d  [Blocked]\n"
	.zero	6
.LC50:
	.string	"Unkown Type [Blocked]\n"
	.zero	1
.LC51:
	.string	"filter_table"
	.zero	3
.LC52:
	.string	"%u.%u.%u.%u"
	.zero	4
.LC53:
	.string	"%s\n"
	.zero	4
.LC54:
	.string	"connectip = %s\n"
.LC55:
	.string	"pkt---IP:%s, syn_cnt:%d, fin_cnt:%d, udp_nct:%d, icmp_cnt:%d, scan_cnt:%d\n"
	.zero	5
.LC56:
	.string	"attack_saddr[%s]=%s,attack_daddr[%s]=%s\n"
	.zero	7
.LC57:
	.string	"op_mode = %d, lan_addr = %s, lan_mask = %s, item = 0x%x,item_0 = 0x%x\n"
	.zero	1
.LC58:
	.string	"enable_dos"
	.zero	5
.LC59:
	.string	"NULL"
	.zero	3
.LC60:
	.string	"PerSynFlood"
	.zero	4
.LC61:
	.string	"PerFinFlood"
	.zero	4
.LC62:
	.string	"PerUdpFlood"
	.zero	4
.LC63:
	.string	"PerIcmpFlood"
	.zero	3
.LC64:
	.string	"PerPingFlood"
	.zero	3
.LC65:
	.string	"TcpUdpPortScan"
	.zero	1
.LC66:
	.string	"IcmpSmurf"
	.zero	6
.LC67:
	.string	"IpLand"
	.zero	1
.LC68:
	.string	"IpSpoof"
.LC69:
	.string	"TearDrop"
	.zero	7
.LC70:
	.string	"PingOfDeath"
	.zero	4
.LC71:
	.string	"TcpScan"
.LC72:
	.string	"TcpSynWithData"
	.zero	1
.LC73:
	.string	"UdpBomb"
.LC74:
	.string	"UdpEchoChargen"
	.zero	1
.LC75:
	.string	"UdpFraggle"
	.zero	5
.LC76:
	.string	"IcmpEchoStorm"
	.zero	2
.LC77:
	.string	"UdpSnorkAttack"
	.zero	1
.LC78:
	.string	"TcpInvalidFlags"
.LC79:
	.string	"TcpRstAttack"
	.zero	3
.LC80:
	.string	"BcMcSrcIpAttack"
.LC81:
	.string	"ShortIpPkt"
	.zero	5
.LC82:
	.string	"IcmpPingSweep"
	.zero	2
.LC83:
	.string	"IcmpEchoWithoutReply"
	.zero	3
.LC84:
	.string	"TcpInvalidOptions"
	.zero	6
.LC85:
	.string	"LoopBackEchoChargen"
	.zero	4
.LC86:
	.string	"MaxDosType"
	.bss
	.align	3
.LANCHOR0 = . + 0
.LANCHOR1 = . + 39168
.LANCHOR3 = . + 43520
	.type	table_list_head, %object
	.size	table_list_head, 56
table_list_head:
	.zero	56
	.type	url_filter_mode, %object
	.size	url_filter_mode, 4
url_filter_mode:
	.zero	4
	.zero	4
	.type	block_message, %object
	.size	block_message, 8
block_message:
	.zero	8
	.type	url_cache, %object
	.size	url_cache, 20
url_cache:
	.zero	20
	.type	finStateClientPort, %object
	.size	finStateClientPort, 2
finStateClientPort:
	.zero	2
	.zero	2
	.type	finStateClientSeq, %object
	.size	finStateClientSeq, 4
finStateClientSeq:
	.zero	4
	.type	endStateClientPort, %object
	.size	endStateClientPort, 2
endStateClientPort:
	.zero	2
	.zero	2
	.type	endStateClientSeq, %object
	.size	endStateClientSeq, 4
endStateClientSeq:
	.zero	4
	.zero	4
	.type	dos_pkt, %object
	.size	dos_pkt, 40960
dos_pkt:
	.zero	40960
	.type	item, %object
	.size	item, 4
item:
	.zero	4
	.type	block, %object
	.size	block, 4
block:
	.zero	4
	.type	block_count, %object
	.size	block_count, 4
block_count:
	.zero	4
	.type	LogFlag, %object
	.size	LogFlag, 4
LogFlag:
	.zero	4
	.type	whole_syn_threshold, %object
	.size	whole_syn_threshold, 4
whole_syn_threshold:
	.zero	4
	.type	whole_fin_threshold, %object
	.size	whole_fin_threshold, 4
whole_fin_threshold:
	.zero	4
	.type	whole_udp_threshold, %object
	.size	whole_udp_threshold, 4
whole_udp_threshold:
	.zero	4
	.type	whole_icmp_threshold, %object
	.size	whole_icmp_threshold, 4
whole_icmp_threshold:
	.zero	4
	.type	attack_daddr, %object
	.size	attack_daddr, 108
attack_daddr:
	.zero	108
	.zero	4
	.type	attack_saddr, %object
	.size	attack_saddr, 108
attack_saddr:
	.zero	108
	.type	block_time, %object
	.size	block_time, 4
block_time:
	.zero	4
	.type	icmp_echo_request_time, %object
	.size	icmp_echo_request_time, 8
icmp_echo_request_time:
	.zero	8
	.type	icmp_echo_request, %object
	.size	icmp_echo_request, 4
icmp_echo_request:
	.zero	4
	.type	none_dos_drop_pkt_cnt, %object
	.size	none_dos_drop_pkt_cnt, 4
none_dos_drop_pkt_cnt:
	.zero	4
	.type	item_backup, %object
	.size	item_backup, 4
item_backup:
	.zero	4
	.zero	4
	.type	dos_timer, %object
	.size	dos_timer, 48
dos_timer:
	.zero	48
	.type	ConnectedIp, %object
	.size	ConnectedIp, 1024
ConnectedIp:
	.zero	1024
	.type	cur_p_pkt, %object
	.size	cur_p_pkt, 8
cur_p_pkt:
	.zero	8
	.type	url_filter_flag, %object
	.size	url_filter_flag, 4
url_filter_flag:
	.zero	4
	.zero	4
	.type	log_info, %object
	.size	log_info, 32
log_info:
	.zero	32
	.type	filter_rule_num, %object
	.size	filter_rule_num, 4
filter_rule_num:
	.zero	4
	.type	log_enable, %object
	.size	log_enable, 4
log_enable:
	.zero	4
	.type	get_info_from_usr_space, %object
	.size	get_info_from_usr_space, 1024
get_info_from_usr_space:
	.zero	1024
	.type	res12, %object
	.size	res12, 8
res12:
	.zero	8
	.type	___strtok, %object
	.size	___strtok, 8
___strtok:
	.zero	8
	.type	dos_flag, %object
	.size	dos_flag, 80
dos_flag:
	.zero	80
	.type	op_mode, %object
	.size	op_mode, 1
op_mode:
	.zero	1
	.zero	3
	.type	lan_addr, %object
	.size	lan_addr, 4
lan_addr:
	.zero	4
	.type	lan_mask, %object
	.size	lan_mask, 4
lan_mask:
	.zero	4
	.type	per_syn_threshold, %object
	.size	per_syn_threshold, 4
per_syn_threshold:
	.zero	4
	.type	per_fin_threshold, %object
	.size	per_fin_threshold, 4
per_fin_threshold:
	.zero	4
	.type	per_udp_threshold, %object
	.size	per_udp_threshold, 4
per_udp_threshold:
	.zero	4
	.type	per_icmp_threshold, %object
	.size	per_icmp_threshold, 4
per_icmp_threshold:
	.zero	4
	.type	item_0, %object
	.size	item_0, 4
item_0:
	.zero	4
	.type	ip_name0, %object
	.size	ip_name0, 16
ip_name0:
	.zero	16
	.type	ip_name1, %object
	.size	ip_name1, 16
ip_name1:
	.zero	16
	.type	fast_path_cusRsp401_func, %object
	.size	fast_path_cusRsp401_func, 8
fast_path_cusRsp401_func:
	.zero	8
	.type	fast_path_cusRspTCPFinAck_func, %object
	.size	fast_path_cusRspTCPFinAck_func, 8
fast_path_cusRspTCPFinAck_func:
	.zero	8
	.type	fast_path_cusRspTCPEndAck_func, %object
	.size	fast_path_cusRspTCPEndAck_func, 8
fast_path_cusRspTCPEndAck_func:
	.zero	8
	.type	wan_ppp_dev, %object
	.size	wan_ppp_dev, 8
wan_ppp_dev:
	.zero	8
	.type	wan_dev, %object
	.size	wan_dev, 8
wan_dev:
	.zero	8
	.type	_tcpDosScanBitmap, %object
	.size	_tcpDosScanBitmap, 64
_tcpDosScanBitmap:
	.zero	64
	.type	url_count, %object
	.size	url_count, 1
url_count:
	.zero	1
	.zero	7
	.type	res3, %object
	.size	res3, 8
res3:
	.zero	8
	.text
.Letext0:
	.file 17 "include/uapi/asm-generic/int-ll64.h"
	.file 18 "include/asm-generic/int-ll64.h"
	.file 19 "./include/uapi/asm-generic/posix_types.h"
	.file 20 "include/uapi/linux/types.h"
	.file 21 "include/linux/types.h"
	.file 22 "include/asm-generic/atomic-long.h"
	.file 23 "include/linux/mm.h"
	.file 24 "include/linux/stddef.h"
	.file 25 "include/uapi/linux/in.h"
	.file 26 "include/uapi/linux/netfilter.h"
	.file 27 "include/uapi/linux/ip.h"
	.file 28 "include/uapi/linux/rtnetlink.h"
	.file 29 "include/net/ndisc.h"
	.file 30 "include/net/rtl/rtl_types.h"
	.file 31 "include/net/rtl/fastpath/fastpath_core.h"
	.file 32 "include/asm-generic/bitops/builtin-__fls.h"
	.file 33 "include/asm-generic/bitops/fls64.h"
	.file 34 "include/linux/thread_info.h"
	.file 35 "include/linux/kasan.h"
	.file 36 "include/linux/log2.h"
	.file 37 "include/asm-generic/getorder.h"
	.file 38 "include/linux/inetdevice.h"
	.file 39 "include/net/inet_frag.h"
	.file 40 "include/linux/etherdevice.h"
	.file 41 "./arch/arm64/include/asm/cachetype.h"
	.file 42 "include/linux/printk.h"
	.file 43 "include/linux/kernel.h"
	.file 44 "./arch/arm64/include/asm/hwcap.h"
	.file 45 "./arch/arm64/include/asm/cpufeature.h"
	.file 46 "include/linux/jiffies.h"
	.file 47 "include/linux/cpumask.h"
	.file 48 "./arch/arm64/include/asm/memory.h"
	.file 49 "include/linux/highuid.h"
	.file 50 "include/linux/seq_file.h"
	.file 51 "include/linux/sched.h"
	.file 52 "include/asm-generic/percpu.h"
	.file 53 "include/linux/mmzone.h"
	.file 54 "include/linux/workqueue.h"
	.file 55 "./arch/arm64/include/asm/topology.h"
	.file 56 "include/linux/percpu_counter.h"
	.file 57 "include/linux/hrtimer.h"
	.file 58 "include/linux/dcache.h"
	.file 59 "include/linux/quota.h"
	.file 60 "include/linux/fs.h"
	.file 61 "./arch/arm64/include/asm/irq.h"
	.file 62 "./arch/arm64/include/asm/hardirq.h"
	.file 63 "include/linux/interrupt.h"
	.file 64 "include/linux/kernel_stat.h"
	.file 65 "include/linux/debug_locks.h"
	.file 66 "include/asm-generic/pgtable.h"
	.file 67 "include/linux/vmstat.h"
	.file 68 "./arch/arm64/include/../../arm/include/asm/xen/hypervisor.h"
	.file 69 "./arch/arm64/include/asm/dma-mapping.h"
	.file 70 "include/net/flow_dissector.h"
	.file 71 "include/net/net_namespace.h"
	.file 72 "include/linux/of.h"
	.file 73 "include/linux/netdevice.h"
	.file 74 "include/net/sch_generic.h"
	.file 75 "include/net/sock.h"
	.file 76 "include/net/inet_connection_sock.h"
	.file 77 "include/net/ip_fib.h"
	.file 78 "include/net/route.h"
	.file 79 "include/net/arp.h"
	.file 80 "include/linux/netfilter.h"
	.file 81 "include/net/tcp.h"
	.file 82 "include/linux/backing-dev-defs.h"
	.section	.note.GNU-stack,"",%progbits
